GAS LISTING C:\Users\user\AppData\Local\Temp/ccHVvlcI.s 			page 1


   1               		.file	"ucos_ii.c"
   2               	__SREG__ = 0x3f
   3               	__SP_H__ = 0x3e
   4               	__SP_L__ = 0x3d
   5               	__CCP__  = 0x34
   6               	__tmp_reg__ = 0
   7               	__zero_reg__ = 1
   8               		.text
   9               	.global	OSIntEnter
  10               		.type	OSIntEnter, @function
  11               	OSIntEnter:
  12               	/* prologue: function */
  13               	/* frame size = 0 */
  14 0000 8091 0000 		lds r24,OSRunning
  15 0004 8130      		cpi r24,lo8(1)
  16 0006 01F0      		breq .L5
  17               	.L3:
  18 0008 0895      		ret
  19               	.L5:
  20 000a 8091 0000 		lds r24,OSIntNesting
  21 000e 8F3F      		cpi r24,lo8(-1)
  22 0010 01F0      		breq .L3
  23 0012 8F5F      		subi r24,lo8(-(1))
  24 0014 8093 0000 		sts OSIntNesting,r24
  25 0018 0895      		ret
  26               		.size	OSIntEnter, .-OSIntEnter
  27               	.global	OSSchedLock
  28               		.type	OSSchedLock, @function
  29               	OSSchedLock:
  30               	/* prologue: function */
  31               	/* frame size = 0 */
  32 001a 8091 0000 		lds r24,OSRunning
  33 001e 8130      		cpi r24,lo8(1)
  34 0020 01F0      		breq .L10
  35 0022 0895      		ret
  36               	.L10:
  37               	/* #APP */
  38               	 ;  222 "c:/lab2/source/os_core.c" 1
  39 0024 F894      		cli
  40               	 ;  0 "" 2
  41               	/* #NOAPP */
  42 0026 8091 0000 		lds r24,OSLockNesting
  43 002a 8F3F      		cpi r24,lo8(-1)
  44 002c 01F0      		breq .L8
  45 002e 8F5F      		subi r24,lo8(-(1))
  46 0030 8093 0000 		sts OSLockNesting,r24
  47               	.L8:
  48               	/* #APP */
  49               	 ;  226 "c:/lab2/source/os_core.c" 1
  50 0034 7894      		sei
  51               	 ;  0 "" 2
  52               	/* #NOAPP */
  53 0036 0895      		ret
  54               		.size	OSSchedLock, .-OSSchedLock
  55               	.global	OSVersion
  56               		.type	OSVersion, @function
  57               	OSVersion:
GAS LISTING C:\Users\user\AppData\Local\Temp/ccHVvlcI.s 			page 2


  58               	/* prologue: function */
  59               	/* frame size = 0 */
  60 0038 8CEF      		ldi r24,lo8(252)
  61 003a 90E0      		ldi r25,hi8(252)
  62               	/* epilogue start */
  63 003c 0895      		ret
  64               		.size	OSVersion, .-OSVersion
  65               	.global	OS_Dummy
  66               		.type	OS_Dummy, @function
  67               	OS_Dummy:
  68               	/* prologue: function */
  69               	/* frame size = 0 */
  70               	/* epilogue start */
  71 003e 0895      		ret
  72               		.size	OS_Dummy, .-OS_Dummy
  73               	.global	OS_EventTaskRdy
  74               		.type	OS_EventTaskRdy, @function
  75               	OS_EventTaskRdy:
  76 0040 FF92      		push r15
  77 0042 0F93      		push r16
  78 0044 1F93      		push r17
  79 0046 CF93      		push r28
  80 0048 DF93      		push r29
  81               	/* prologue: function */
  82               	/* frame size = 0 */
  83 004a EC01      		movw r28,r24
  84 004c 8B01      		movw r16,r22
  85 004e F42E      		mov r15,r20
  86 0050 3981      		ldd r19,Y+1
  87 0052 E32F      		mov r30,r19
  88 0054 F0E0      		ldi r31,lo8(0)
  89 0056 E050      		subi r30,lo8(-(OSUnMapTbl))
  90 0058 F040      		sbci r31,hi8(-(OSUnMapTbl))
  91 005a 2081      		ld r18,Z
  92 005c 422F      		mov r20,r18
  93 005e 50E0      		ldi r21,lo8(0)
  94 0060 FA01      		movw r30,r20
  95 0062 E050      		subi r30,lo8(-(OSMapTbl))
  96 0064 F040      		sbci r31,hi8(-(OSMapTbl))
  97 0066 7081      		ld r23,Z
  98 0068 DC01      		movw r26,r24
  99 006a A40F      		add r26,r20
 100 006c B51F      		adc r27,r21
 101 006e 1696      		adiw r26,6
 102 0070 9C91      		ld r25,X
 103 0072 1697      		sbiw r26,6
 104 0074 E92F      		mov r30,r25
 105 0076 F0E0      		ldi r31,lo8(0)
 106 0078 E050      		subi r30,lo8(-(OSUnMapTbl))
 107 007a F040      		sbci r31,hi8(-(OSUnMapTbl))
 108 007c 8081      		ld r24,Z
 109 007e E82F      		mov r30,r24
 110 0080 F0E0      		ldi r31,lo8(0)
 111 0082 E050      		subi r30,lo8(-(OSMapTbl))
 112 0084 F040      		sbci r31,hi8(-(OSMapTbl))
 113 0086 6081      		ld r22,Z
 114 0088 220F      		lsl r18
GAS LISTING C:\Users\user\AppData\Local\Temp/ccHVvlcI.s 			page 3


 115 008a 220F      		lsl r18
 116 008c 220F      		lsl r18
 117 008e 280F      		add r18,r24
 118 0090 862F      		mov r24,r22
 119 0092 8095      		com r24
 120 0094 8923      		and r24,r25
 121 0096 1696      		adiw r26,6
 122 0098 8C93      		st X,r24
 123 009a 8823      		tst r24
 124 009c 01F4      		brne .L16
 125 009e 872F      		mov r24,r23
 126 00a0 8095      		com r24
 127 00a2 3823      		and r19,r24
 128 00a4 3983      		std Y+1,r19
 129               	.L16:
 130 00a6 E22F      		mov r30,r18
 131 00a8 F0E0      		ldi r31,lo8(0)
 132 00aa EE0F      		lsl r30
 133 00ac FF1F      		rol r31
 134 00ae E050      		subi r30,lo8(-(OSTCBPrioTbl))
 135 00b0 F040      		sbci r31,hi8(-(OSTCBPrioTbl))
 136 00b2 0190      		ld __tmp_reg__,Z+
 137 00b4 F081      		ld r31,Z
 138 00b6 E02D      		mov r30,__tmp_reg__
 139 00b8 128E      		std Z+26,__zero_reg__
 140 00ba 118E      		std Z+25,__zero_reg__
 141 00bc 138A      		std Z+19,__zero_reg__
 142 00be 128A      		std Z+18,__zero_reg__
 143 00c0 158B      		std Z+21,r17
 144 00c2 048B      		std Z+20,r16
 145 00c4 8F2D      		mov r24,r15
 146 00c6 8095      		com r24
 147 00c8 938D      		ldd r25,Z+27
 148 00ca 8923      		and r24,r25
 149 00cc 838F      		std Z+27,r24
 150 00ce 8823      		tst r24
 151 00d0 01F4      		brne .L17
 152 00d2 8091 0000 		lds r24,OSRdyGrp
 153 00d6 872B      		or r24,r23
 154 00d8 8093 0000 		sts OSRdyGrp,r24
 155 00dc FA01      		movw r30,r20
 156 00de E050      		subi r30,lo8(-(OSRdyTbl))
 157 00e0 F040      		sbci r31,hi8(-(OSRdyTbl))
 158 00e2 8081      		ld r24,Z
 159 00e4 682B      		or r22,r24
 160 00e6 6083      		st Z,r22
 161               	.L17:
 162 00e8 822F      		mov r24,r18
 163               	/* epilogue start */
 164 00ea DF91      		pop r29
 165 00ec CF91      		pop r28
 166 00ee 1F91      		pop r17
 167 00f0 0F91      		pop r16
 168 00f2 FF90      		pop r15
 169 00f4 0895      		ret
 170               		.size	OS_EventTaskRdy, .-OS_EventTaskRdy
 171               	.global	OS_EventTaskWait
GAS LISTING C:\Users\user\AppData\Local\Temp/ccHVvlcI.s 			page 4


 172               		.type	OS_EventTaskWait, @function
 173               	OS_EventTaskWait:
 174 00f6 CF93      		push r28
 175 00f8 DF93      		push r29
 176               	/* prologue: function */
 177               	/* frame size = 0 */
 178 00fa EC01      		movw r28,r24
 179 00fc A091 0000 		lds r26,OSTCBCur
 180 0100 B091 0000 		lds r27,(OSTCBCur)+1
 181 0104 5396      		adiw r26,18+1
 182 0106 9C93      		st X,r25
 183 0108 8E93      		st -X,r24
 184 010a 5297      		sbiw r26,18
 185 010c 5E96      		adiw r26,30
 186 010e 8C91      		ld r24,X
 187 0110 5E97      		sbiw r26,30
 188 0112 482F      		mov r20,r24
 189 0114 50E0      		ldi r21,lo8(0)
 190 0116 5F96      		adiw r26,31
 191 0118 3C91      		ld r19,X
 192 011a 5F97      		sbiw r26,31
 193 011c FA01      		movw r30,r20
 194 011e E050      		subi r30,lo8(-(OSRdyTbl))
 195 0120 F040      		sbci r31,hi8(-(OSRdyTbl))
 196 0122 832F      		mov r24,r19
 197 0124 8095      		com r24
 198 0126 9081      		ld r25,Z
 199 0128 8923      		and r24,r25
 200 012a 8083      		st Z,r24
 201 012c 8823      		tst r24
 202 012e 01F4      		brne .L23
 203 0130 9096      		adiw r26,32
 204 0132 2C91      		ld r18,X
 205 0134 922F      		mov r25,r18
 206 0136 9095      		com r25
 207 0138 8091 0000 		lds r24,OSRdyGrp
 208 013c 8923      		and r24,r25
 209 013e 8093 0000 		sts OSRdyGrp,r24
 210               	.L21:
 211 0142 FE01      		movw r30,r28
 212 0144 E40F      		add r30,r20
 213 0146 F51F      		adc r31,r21
 214 0148 8681      		ldd r24,Z+6
 215 014a 832B      		or r24,r19
 216 014c 8683      		std Z+6,r24
 217 014e 8981      		ldd r24,Y+1
 218 0150 822B      		or r24,r18
 219 0152 8983      		std Y+1,r24
 220               	/* epilogue start */
 221 0154 DF91      		pop r29
 222 0156 CF91      		pop r28
 223 0158 0895      		ret
 224               	.L23:
 225 015a 9096      		adiw r26,32
 226 015c 2C91      		ld r18,X
 227 015e 00C0      		rjmp .L21
 228               		.size	OS_EventTaskWait, .-OS_EventTaskWait
GAS LISTING C:\Users\user\AppData\Local\Temp/ccHVvlcI.s 			page 5


 229               	.global	OS_EventTO
 230               		.type	OS_EventTO, @function
 231               	OS_EventTO:
 232 0160 CF93      		push r28
 233 0162 DF93      		push r29
 234               	/* prologue: function */
 235               	/* frame size = 0 */
 236 0164 EC01      		movw r28,r24
 237 0166 A091 0000 		lds r26,OSTCBCur
 238 016a B091 0000 		lds r27,(OSTCBCur)+1
 239 016e 5E96      		adiw r26,30
 240 0170 8C91      		ld r24,X
 241 0172 5E97      		sbiw r26,30
 242 0174 FE01      		movw r30,r28
 243 0176 E80F      		add r30,r24
 244 0178 F11D      		adc r31,__zero_reg__
 245 017a 5F96      		adiw r26,31
 246 017c 8C91      		ld r24,X
 247 017e 5F97      		sbiw r26,31
 248 0180 8095      		com r24
 249 0182 9681      		ldd r25,Z+6
 250 0184 8923      		and r24,r25
 251 0186 8683      		std Z+6,r24
 252 0188 8823      		tst r24
 253 018a 01F4      		brne .L25
 254 018c 9096      		adiw r26,32
 255 018e 9C91      		ld r25,X
 256 0190 9097      		sbiw r26,32
 257 0192 9095      		com r25
 258 0194 8981      		ldd r24,Y+1
 259 0196 8923      		and r24,r25
 260 0198 8983      		std Y+1,r24
 261               	.L25:
 262 019a 5B96      		adiw r26,27
 263 019c 1C92      		st X,__zero_reg__
 264 019e 5B97      		sbiw r26,27
 265 01a0 5396      		adiw r26,18+1
 266 01a2 1C92      		st X,__zero_reg__
 267 01a4 1E92      		st -X,__zero_reg__
 268 01a6 5297      		sbiw r26,18
 269               	/* epilogue start */
 270 01a8 DF91      		pop r29
 271 01aa CF91      		pop r28
 272 01ac 0895      		ret
 273               		.size	OS_EventTO, .-OS_EventTO
 274               	.global	OS_EventWaitListInit
 275               		.type	OS_EventWaitListInit, @function
 276               	OS_EventWaitListInit:
 277               	/* prologue: function */
 278               	/* frame size = 0 */
 279 01ae FC01      		movw r30,r24
 280 01b0 1182      		std Z+1,__zero_reg__
 281 01b2 1682      		std Z+6,__zero_reg__
 282 01b4 1782      		std Z+7,__zero_reg__
 283               	/* epilogue start */
 284 01b6 0895      		ret
 285               		.size	OS_EventWaitListInit, .-OS_EventWaitListInit
GAS LISTING C:\Users\user\AppData\Local\Temp/ccHVvlcI.s 			page 6


 286               	.global	OSFlagAccept
 287               		.type	OSFlagAccept, @function
 288               	OSFlagAccept:
 289               	/* prologue: function */
 290               	/* frame size = 0 */
 291 01b8 FC01      		movw r30,r24
 292 01ba D901      		movw r26,r18
 293 01bc 0097      		sbiw r24,0
 294 01be 01F0      		breq .L50
 295 01c0 8081      		ld r24,Z
 296 01c2 8530      		cpi r24,lo8(5)
 297 01c4 01F0      		breq .L32
 298 01c6 81E0      		ldi r24,lo8(1)
 299 01c8 8C93      		st X,r24
 300 01ca 80E0      		ldi r24,lo8(0)
 301 01cc 0895      		ret
 302               	.L32:
 303 01ce 47FD      		sbrc r20,7
 304 01d0 00C0      		rjmp .L33
 305 01d2 20E0      		ldi r18,lo8(0)
 306               	.L34:
 307 01d4 1C92      		st X,__zero_reg__
 308               	/* #APP */
 309               	 ;  106 "c:/lab2/source/os_flag.c" 1
 310 01d6 F894      		cli
 311               	 ;  0 "" 2
 312               	/* #NOAPP */
 313 01d8 4130      		cpi r20,lo8(1)
 314 01da 01F0      		breq .L37
 315 01dc 4130      		cpi r20,lo8(1)
 316 01de 00F0      		brlo .L36
 317 01e0 4230      		cpi r20,lo8(2)
 318 01e2 01F0      		breq .L38
 319 01e4 4330      		cpi r20,lo8(3)
 320 01e6 01F0      		breq .L51
 321               	/* #APP */
 322               	 ;  163 "c:/lab2/source/os_flag.c" 1
 323 01e8 7894      		sei
 324               	 ;  0 "" 2
 325               	/* #NOAPP */
 326 01ea 87E9      		ldi r24,lo8(-105)
 327 01ec 8C93      		st X,r24
 328 01ee 80E0      		ldi r24,lo8(0)
 329 01f0 0895      		ret
 330               	.L36:
 331 01f2 9381      		ldd r25,Z+3
 332 01f4 892F      		mov r24,r25
 333 01f6 8095      		com r24
 334 01f8 8623      		and r24,r22
 335 01fa 8617      		cp r24,r22
 336 01fc 01F4      		brne .+2
 337 01fe 00C0      		rjmp .L52
 338 0200 88E9      		ldi r24,lo8(-104)
 339 0202 8C93      		st X,r24
 340 0204 9381      		ldd r25,Z+3
 341               	.L45:
 342 0206 892F      		mov r24,r25
GAS LISTING C:\Users\user\AppData\Local\Temp/ccHVvlcI.s 			page 7


 343               	/* #APP */
 344               	 ;  145 "c:/lab2/source/os_flag.c" 1
 345 0208 7894      		sei
 346               	 ;  0 "" 2
 347               	/* #NOAPP */
 348 020a 0895      		ret
 349               	.L50:
 350 020c 86E9      		ldi r24,lo8(-106)
 351 020e 8C93      		st X,r24
 352 0210 80E0      		ldi r24,lo8(0)
 353 0212 0895      		ret
 354               	.L33:
 355 0214 4F77      		andi r20,lo8(127)
 356 0216 21E0      		ldi r18,lo8(1)
 357 0218 00C0      		rjmp .L34
 358               	.L37:
 359 021a 9381      		ldd r25,Z+3
 360 021c 892F      		mov r24,r25
 361 021e 8095      		com r24
 362 0220 8623      		and r24,r22
 363 0222 01F0      		breq .L46
 364 0224 2130      		cpi r18,lo8(1)
 365 0226 01F4      		brne .L47
 366 0228 892B      		or r24,r25
 367 022a 8383      		std Z+3,r24
 368 022c 982F      		mov r25,r24
 369 022e 00C0      		rjmp .L47
 370               	.L51:
 371 0230 9381      		ldd r25,Z+3
 372 0232 6923      		and r22,r25
 373 0234 01F0      		breq .L42
 374 0236 2130      		cpi r18,lo8(1)
 375 0238 01F4      		brne .L43
 376 023a 862F      		mov r24,r22
 377 023c 8095      		com r24
 378 023e 8923      		and r24,r25
 379 0240 8383      		std Z+3,r24
 380 0242 982F      		mov r25,r24
 381 0244 00C0      		rjmp .L43
 382               	.L38:
 383 0246 9381      		ldd r25,Z+3
 384 0248 862F      		mov r24,r22
 385 024a 8923      		and r24,r25
 386 024c 8617      		cp r24,r22
 387 024e 01F0      		breq .L53
 388 0250 88E9      		ldi r24,lo8(-104)
 389 0252 8C93      		st X,r24
 390 0254 9381      		ldd r25,Z+3
 391               	.L41:
 392 0256 892F      		mov r24,r25
 393               	/* #APP */
 394               	 ;  118 "c:/lab2/source/os_flag.c" 1
 395 0258 7894      		sei
 396               	 ;  0 "" 2
 397               	/* #NOAPP */
 398 025a 0895      		ret
 399               	.L42:
GAS LISTING C:\Users\user\AppData\Local\Temp/ccHVvlcI.s 			page 8


 400 025c 88E9      		ldi r24,lo8(-104)
 401 025e 8C93      		st X,r24
 402 0260 9381      		ldd r25,Z+3
 403               	.L43:
 404 0262 892F      		mov r24,r25
 405               	/* #APP */
 406               	 ;  131 "c:/lab2/source/os_flag.c" 1
 407 0264 7894      		sei
 408               	 ;  0 "" 2
 409               	/* #NOAPP */
 410 0266 0895      		ret
 411               	.L46:
 412 0268 88E9      		ldi r24,lo8(-104)
 413 026a 8C93      		st X,r24
 414 026c 9381      		ldd r25,Z+3
 415               	.L47:
 416 026e 892F      		mov r24,r25
 417               	/* #APP */
 418               	 ;  158 "c:/lab2/source/os_flag.c" 1
 419 0270 7894      		sei
 420               	 ;  0 "" 2
 421               	/* #NOAPP */
 422 0272 0895      		ret
 423               	.L53:
 424 0274 2130      		cpi r18,lo8(1)
 425 0276 01F4      		brne .L41
 426 0278 862F      		mov r24,r22
 427 027a 8095      		com r24
 428 027c 8923      		and r24,r25
 429 027e 8383      		std Z+3,r24
 430 0280 982F      		mov r25,r24
 431 0282 00C0      		rjmp .L41
 432               	.L52:
 433 0284 2130      		cpi r18,lo8(1)
 434 0286 01F0      		breq .+2
 435 0288 00C0      		rjmp .L45
 436 028a 892F      		mov r24,r25
 437 028c 862B      		or r24,r22
 438 028e 8383      		std Z+3,r24
 439 0290 982F      		mov r25,r24
 440 0292 00C0      		rjmp .L45
 441               		.size	OSFlagAccept, .-OSFlagAccept
 442               	.global	OSFlagCreate
 443               		.type	OSFlagCreate, @function
 444               	OSFlagCreate:
 445               	/* prologue: function */
 446               	/* frame size = 0 */
 447 0294 282F      		mov r18,r24
 448 0296 DB01      		movw r26,r22
 449 0298 8091 0000 		lds r24,OSIntNesting
 450 029c 8823      		tst r24
 451 029e 01F4      		brne .L59
 452               	/* #APP */
 453               	 ;  205 "c:/lab2/source/os_flag.c" 1
 454 02a0 F894      		cli
 455               	 ;  0 "" 2
 456               	/* #NOAPP */
GAS LISTING C:\Users\user\AppData\Local\Temp/ccHVvlcI.s 			page 9


 457 02a2 E091 0000 		lds r30,OSFlagFreeList
 458 02a6 F091 0000 		lds r31,(OSFlagFreeList)+1
 459 02aa 3097      		sbiw r30,0
 460 02ac 01F0      		breq .L57
 461 02ae 8181      		ldd r24,Z+1
 462 02b0 9281      		ldd r25,Z+2
 463 02b2 9093 0000 		sts (OSFlagFreeList)+1,r25
 464 02b6 8093 0000 		sts OSFlagFreeList,r24
 465 02ba 85E0      		ldi r24,lo8(5)
 466 02bc 8083      		st Z,r24
 467 02be 2383      		std Z+3,r18
 468 02c0 1282      		std Z+2,__zero_reg__
 469 02c2 1182      		std Z+1,__zero_reg__
 470               	/* #APP */
 471               	 ;  213 "c:/lab2/source/os_flag.c" 1
 472 02c4 7894      		sei
 473               	 ;  0 "" 2
 474               	/* #NOAPP */
 475 02c6 1C92      		st X,__zero_reg__
 476               	.L56:
 477 02c8 CF01      		movw r24,r30
 478               	/* epilogue start */
 479 02ca 0895      		ret
 480               	.L57:
 481               	/* #APP */
 482               	 ;  216 "c:/lab2/source/os_flag.c" 1
 483 02cc 7894      		sei
 484               	 ;  0 "" 2
 485               	/* #NOAPP */
 486 02ce 8AE9      		ldi r24,lo8(-102)
 487 02d0 8C93      		st X,r24
 488 02d2 CF01      		movw r24,r30
 489 02d4 0895      		ret
 490               	.L59:
 491 02d6 8DE8      		ldi r24,lo8(-115)
 492 02d8 8C93      		st X,r24
 493 02da E0E0      		ldi r30,lo8(0)
 494 02dc F0E0      		ldi r31,hi8(0)
 495 02de 00C0      		rjmp .L56
 496               		.size	OSFlagCreate, .-OSFlagCreate
 497               	.global	OSFlagQuery
 498               		.type	OSFlagQuery, @function
 499               	OSFlagQuery:
 500               	/* prologue: function */
 501               	/* frame size = 0 */
 502 02e0 FC01      		movw r30,r24
 503 02e2 DB01      		movw r26,r22
 504 02e4 0097      		sbiw r24,0
 505 02e6 01F0      		breq .L65
 506 02e8 8081      		ld r24,Z
 507 02ea 8530      		cpi r24,lo8(5)
 508 02ec 01F0      		breq .L63
 509 02ee 81E0      		ldi r24,lo8(1)
 510 02f0 8C93      		st X,r24
 511 02f2 80E0      		ldi r24,lo8(0)
 512 02f4 0895      		ret
 513               	.L63:
GAS LISTING C:\Users\user\AppData\Local\Temp/ccHVvlcI.s 			page 10


 514               	/* #APP */
 515               	 ;  685 "c:/lab2/source/os_flag.c" 1
 516 02f6 F894      		cli
 517               	 ;  0 "" 2
 518               	/* #NOAPP */
 519 02f8 8381      		ldd r24,Z+3
 520               	/* #APP */
 521               	 ;  687 "c:/lab2/source/os_flag.c" 1
 522 02fa 7894      		sei
 523               	 ;  0 "" 2
 524               	/* #NOAPP */
 525 02fc 1C92      		st X,__zero_reg__
 526 02fe 0895      		ret
 527               	.L65:
 528 0300 86E9      		ldi r24,lo8(-106)
 529 0302 8C93      		st X,r24
 530 0304 80E0      		ldi r24,lo8(0)
 531 0306 0895      		ret
 532               		.size	OSFlagQuery, .-OSFlagQuery
 533               		.type	OS_FlagBlock, @function
 534               	OS_FlagBlock:
 535 0308 EF92      		push r14
 536 030a FF92      		push r15
 537 030c 0F93      		push r16
 538 030e 1F93      		push r17
 539 0310 CF93      		push r28
 540 0312 DF93      		push r29
 541               	/* prologue: function */
 542               	/* frame size = 0 */
 543 0314 7C01      		movw r14,r24
 544 0316 FB01      		movw r30,r22
 545 0318 A091 0000 		lds r26,OSTCBCur
 546 031c B091 0000 		lds r27,(OSTCBCur)+1
 547 0320 5B96      		adiw r26,27
 548 0322 8C91      		ld r24,X
 549 0324 5B97      		sbiw r26,27
 550 0326 8062      		ori r24,lo8(32)
 551 0328 5B96      		adiw r26,27
 552 032a 8C93      		st X,r24
 553 032c 5B97      		sbiw r26,27
 554 032e 5A96      		adiw r26,25+1
 555 0330 1C93      		st X,r17
 556 0332 0E93      		st -X,r16
 557 0334 5997      		sbiw r26,25
 558 0336 5796      		adiw r26,22+1
 559 0338 7C93      		st X,r23
 560 033a 6E93      		st -X,r22
 561 033c 5697      		sbiw r26,22
 562 033e 4087      		std Z+8,r20
 563 0340 2187      		std Z+9,r18
 564 0342 B583      		std Z+5,r27
 565 0344 A483      		std Z+4,r26
 566 0346 E701      		movw r28,r14
 567 0348 8981      		ldd r24,Y+1
 568 034a 9A81      		ldd r25,Y+2
 569 034c 9183      		std Z+1,r25
 570 034e 8083      		st Z,r24
GAS LISTING C:\Users\user\AppData\Local\Temp/ccHVvlcI.s 			page 11


 571 0350 1382      		std Z+3,__zero_reg__
 572 0352 1282      		std Z+2,__zero_reg__
 573 0354 F782      		std Z+7,r15
 574 0356 E682      		std Z+6,r14
 575 0358 8981      		ldd r24,Y+1
 576 035a 9A81      		ldd r25,Y+2
 577 035c 0097      		sbiw r24,0
 578 035e 01F0      		breq .L67
 579 0360 EC01      		movw r28,r24
 580 0362 7B83      		std Y+3,r23
 581 0364 6A83      		std Y+2,r22
 582               	.L67:
 583 0366 E701      		movw r28,r14
 584 0368 FA83      		std Y+2,r31
 585 036a E983      		std Y+1,r30
 586 036c 5E96      		adiw r26,30
 587 036e EC91      		ld r30,X
 588 0370 5E97      		sbiw r26,30
 589 0372 F0E0      		ldi r31,lo8(0)
 590 0374 E050      		subi r30,lo8(-(OSRdyTbl))
 591 0376 F040      		sbci r31,hi8(-(OSRdyTbl))
 592 0378 5F96      		adiw r26,31
 593 037a 8C91      		ld r24,X
 594 037c 5F97      		sbiw r26,31
 595 037e 8095      		com r24
 596 0380 9081      		ld r25,Z
 597 0382 8923      		and r24,r25
 598 0384 8083      		st Z,r24
 599 0386 8823      		tst r24
 600 0388 01F4      		brne .L69
 601 038a 9096      		adiw r26,32
 602 038c 9C91      		ld r25,X
 603 038e 9095      		com r25
 604 0390 8091 0000 		lds r24,OSRdyGrp
 605 0394 8923      		and r24,r25
 606 0396 8093 0000 		sts OSRdyGrp,r24
 607               	.L69:
 608               	/* epilogue start */
 609 039a DF91      		pop r29
 610 039c CF91      		pop r28
 611 039e 1F91      		pop r17
 612 03a0 0F91      		pop r16
 613 03a2 FF90      		pop r15
 614 03a4 EF90      		pop r14
 615 03a6 0895      		ret
 616               		.size	OS_FlagBlock, .-OS_FlagBlock
 617               	.global	OS_FlagInit
 618               		.type	OS_FlagInit, @function
 619               	OS_FlagInit:
 620               	/* prologue: function */
 621               	/* frame size = 0 */
 622 03a8 1092 0000 		sts OSFlagTbl,__zero_reg__
 623 03ac 80E0      		ldi r24,lo8(OSFlagTbl+4)
 624 03ae 90E0      		ldi r25,hi8(OSFlagTbl+4)
 625 03b0 9093 0000 		sts (OSFlagTbl+1)+1,r25
 626 03b4 8093 0000 		sts OSFlagTbl+1,r24
 627 03b8 1092 0000 		sts OSFlagTbl+4,__zero_reg__
GAS LISTING C:\Users\user\AppData\Local\Temp/ccHVvlcI.s 			page 12


 628 03bc 0496      		adiw r24,4
 629 03be 9093 0000 		sts (OSFlagTbl+5)+1,r25
 630 03c2 8093 0000 		sts OSFlagTbl+5,r24
 631 03c6 1092 0000 		sts OSFlagTbl+8,__zero_reg__
 632 03ca 0496      		adiw r24,4
 633 03cc 9093 0000 		sts (OSFlagTbl+9)+1,r25
 634 03d0 8093 0000 		sts OSFlagTbl+9,r24
 635 03d4 0C97      		sbiw r24,12
 636 03d6 1092 0000 		sts (OSFlagTbl+13)+1,__zero_reg__
 637 03da 1092 0000 		sts OSFlagTbl+13,__zero_reg__
 638 03de 9093 0000 		sts (OSFlagFreeList)+1,r25
 639 03e2 8093 0000 		sts OSFlagFreeList,r24
 640               	/* epilogue start */
 641 03e6 0895      		ret
 642               		.size	OS_FlagInit, .-OS_FlagInit
 643               	.global	OS_FlagUnlink
 644               		.type	OS_FlagUnlink, @function
 645               	OS_FlagUnlink:
 646 03e8 CF93      		push r28
 647 03ea DF93      		push r29
 648               	/* prologue: function */
 649               	/* frame size = 0 */
 650 03ec EC01      		movw r28,r24
 651 03ee EA81      		ldd r30,Y+2
 652 03f0 FB81      		ldd r31,Y+3
 653 03f2 A881      		ld r26,Y
 654 03f4 B981      		ldd r27,Y+1
 655 03f6 3097      		sbiw r30,0
 656 03f8 01F0      		breq .L76
 657 03fa B183      		std Z+1,r27
 658 03fc A083      		st Z,r26
 659 03fe 1097      		sbiw r26,0
 660 0400 01F0      		breq .L74
 661 0402 1396      		adiw r26,2+1
 662 0404 FC93      		st X,r31
 663 0406 EE93      		st -X,r30
 664 0408 1297      		sbiw r26,2
 665               	.L74:
 666 040a EC81      		ldd r30,Y+4
 667 040c FD81      		ldd r31,Y+5
 668 040e 178A      		std Z+23,__zero_reg__
 669 0410 168A      		std Z+22,__zero_reg__
 670               	/* epilogue start */
 671 0412 DF91      		pop r29
 672 0414 CF91      		pop r28
 673 0416 0895      		ret
 674               	.L76:
 675 0418 EE81      		ldd r30,Y+6
 676 041a FF81      		ldd r31,Y+7
 677 041c B283      		std Z+2,r27
 678 041e A183      		std Z+1,r26
 679 0420 1097      		sbiw r26,0
 680 0422 01F0      		breq .L74
 681 0424 1396      		adiw r26,2+1
 682 0426 1C92      		st X,__zero_reg__
 683 0428 1E92      		st -X,__zero_reg__
 684 042a 1297      		sbiw r26,2
GAS LISTING C:\Users\user\AppData\Local\Temp/ccHVvlcI.s 			page 13


 685 042c EC81      		ldd r30,Y+4
 686 042e FD81      		ldd r31,Y+5
 687 0430 178A      		std Z+23,__zero_reg__
 688 0432 168A      		std Z+22,__zero_reg__
 689 0434 DF91      		pop r29
 690 0436 CF91      		pop r28
 691 0438 0895      		ret
 692               		.size	OS_FlagUnlink, .-OS_FlagUnlink
 693               		.type	OS_FlagTaskRdy, @function
 694               	OS_FlagTaskRdy:
 695 043a 1F93      		push r17
 696 043c CF93      		push r28
 697 043e DF93      		push r29
 698               	/* prologue: function */
 699               	/* frame size = 0 */
 700 0440 EC01      		movw r28,r24
 701 0442 AC81      		ldd r26,Y+4
 702 0444 BD81      		ldd r27,Y+5
 703 0446 5A96      		adiw r26,25+1
 704 0448 1C92      		st X,__zero_reg__
 705 044a 1E92      		st -X,__zero_reg__
 706 044c 5997      		sbiw r26,25
 707 044e 5896      		adiw r26,24
 708 0450 6C93      		st X,r22
 709 0452 5897      		sbiw r26,24
 710 0454 5B96      		adiw r26,27
 711 0456 8C91      		ld r24,X
 712 0458 5B97      		sbiw r26,27
 713 045a 8F7D      		andi r24,lo8(-33)
 714 045c 5B96      		adiw r26,27
 715 045e 8C93      		st X,r24
 716 0460 5B97      		sbiw r26,27
 717 0462 8823      		tst r24
 718 0464 01F4      		brne .L81
 719 0466 8091 0000 		lds r24,OSRdyGrp
 720 046a 9096      		adiw r26,32
 721 046c 9C91      		ld r25,X
 722 046e 9097      		sbiw r26,32
 723 0470 892B      		or r24,r25
 724 0472 8093 0000 		sts OSRdyGrp,r24
 725 0476 5E96      		adiw r26,30
 726 0478 EC91      		ld r30,X
 727 047a 5E97      		sbiw r26,30
 728 047c F0E0      		ldi r31,lo8(0)
 729 047e E050      		subi r30,lo8(-(OSRdyTbl))
 730 0480 F040      		sbci r31,hi8(-(OSRdyTbl))
 731 0482 8081      		ld r24,Z
 732 0484 5F96      		adiw r26,31
 733 0486 9C91      		ld r25,X
 734 0488 892B      		or r24,r25
 735 048a 8083      		st Z,r24
 736 048c 11E0      		ldi r17,lo8(1)
 737 048e CE01      		movw r24,r28
 738 0490 0E94 0000 		call OS_FlagUnlink
 739 0494 812F      		mov r24,r17
 740               	/* epilogue start */
 741 0496 DF91      		pop r29
GAS LISTING C:\Users\user\AppData\Local\Temp/ccHVvlcI.s 			page 14


 742 0498 CF91      		pop r28
 743 049a 1F91      		pop r17
 744 049c 0895      		ret
 745               	.L81:
 746 049e 10E0      		ldi r17,lo8(0)
 747 04a0 CE01      		movw r24,r28
 748 04a2 0E94 0000 		call OS_FlagUnlink
 749 04a6 812F      		mov r24,r17
 750 04a8 DF91      		pop r29
 751 04aa CF91      		pop r28
 752 04ac 1F91      		pop r17
 753 04ae 0895      		ret
 754               		.size	OS_FlagTaskRdy, .-OS_FlagTaskRdy
 755               	.global	OSMboxAccept
 756               		.type	OSMboxAccept, @function
 757               	OSMboxAccept:
 758               	/* prologue: function */
 759               	/* frame size = 0 */
 760 04b0 FC01      		movw r30,r24
 761 04b2 0097      		sbiw r24,0
 762 04b4 01F4      		brne .L86
 763               	.L83:
 764 04b6 20E0      		ldi r18,lo8(0)
 765 04b8 30E0      		ldi r19,hi8(0)
 766               	.L84:
 767 04ba C901      		movw r24,r18
 768               	/* epilogue start */
 769 04bc 0895      		ret
 770               	.L86:
 771 04be 8081      		ld r24,Z
 772 04c0 8130      		cpi r24,lo8(1)
 773 04c2 01F4      		brne .L83
 774               	/* #APP */
 775               	 ;  54 "c:/lab2/source/os_mbox.c" 1
 776 04c4 F894      		cli
 777               	 ;  0 "" 2
 778               	/* #NOAPP */
 779 04c6 2481      		ldd r18,Z+4
 780 04c8 3581      		ldd r19,Z+5
 781 04ca 1582      		std Z+5,__zero_reg__
 782 04cc 1482      		std Z+4,__zero_reg__
 783               	/* #APP */
 784               	 ;  57 "c:/lab2/source/os_mbox.c" 1
 785 04ce 7894      		sei
 786               	 ;  0 "" 2
 787               	/* #NOAPP */
 788 04d0 00C0      		rjmp .L84
 789               		.size	OSMboxAccept, .-OSMboxAccept
 790               	.global	OSMboxCreate
 791               		.type	OSMboxCreate, @function
 792               	OSMboxCreate:
 793               	/* prologue: function */
 794               	/* frame size = 0 */
 795 04d2 9C01      		movw r18,r24
 796 04d4 8091 0000 		lds r24,OSIntNesting
 797 04d8 8823      		tst r24
 798 04da 01F4      		brne .L92
GAS LISTING C:\Users\user\AppData\Local\Temp/ccHVvlcI.s 			page 15


 799               	/* #APP */
 800               	 ;  89 "c:/lab2/source/os_mbox.c" 1
 801 04dc F894      		cli
 802               	 ;  0 "" 2
 803               	/* #NOAPP */
 804 04de E091 0000 		lds r30,OSEventFreeList
 805 04e2 F091 0000 		lds r31,(OSEventFreeList)+1
 806 04e6 3097      		sbiw r30,0
 807 04e8 01F0      		breq .L90
 808 04ea 8481      		ldd r24,Z+4
 809 04ec 9581      		ldd r25,Z+5
 810 04ee 9093 0000 		sts (OSEventFreeList)+1,r25
 811 04f2 8093 0000 		sts OSEventFreeList,r24
 812               	.L90:
 813               	/* #APP */
 814               	 ;  94 "c:/lab2/source/os_mbox.c" 1
 815 04f6 7894      		sei
 816               	 ;  0 "" 2
 817               	/* #NOAPP */
 818 04f8 3097      		sbiw r30,0
 819 04fa 01F0      		breq .L89
 820 04fc 81E0      		ldi r24,lo8(1)
 821 04fe 8083      		st Z,r24
 822 0500 1382      		std Z+3,__zero_reg__
 823 0502 1282      		std Z+2,__zero_reg__
 824 0504 3583      		std Z+5,r19
 825 0506 2483      		std Z+4,r18
 826 0508 1182      		std Z+1,__zero_reg__
 827 050a 1682      		std Z+6,__zero_reg__
 828 050c 1782      		std Z+7,__zero_reg__
 829               	.L89:
 830 050e CF01      		movw r24,r30
 831               	/* epilogue start */
 832 0510 0895      		ret
 833               	.L92:
 834 0512 E0E0      		ldi r30,lo8(0)
 835 0514 F0E0      		ldi r31,hi8(0)
 836 0516 CF01      		movw r24,r30
 837 0518 0895      		ret
 838               		.size	OSMboxCreate, .-OSMboxCreate
 839               	.global	OSMboxQuery
 840               		.type	OSMboxQuery, @function
 841               	OSMboxQuery:
 842               	/* prologue: function */
 843               	/* frame size = 0 */
 844 051a FC01      		movw r30,r24
 845 051c DB01      		movw r26,r22
 846 051e 0097      		sbiw r24,0
 847 0520 01F0      		breq .L98
 848 0522 8081      		ld r24,Z
 849 0524 8130      		cpi r24,lo8(1)
 850 0526 01F0      		breq .L96
 851 0528 81E0      		ldi r24,lo8(1)
 852 052a 0895      		ret
 853               	.L96:
 854               	/* #APP */
 855               	 ;  452 "c:/lab2/source/os_mbox.c" 1
GAS LISTING C:\Users\user\AppData\Local\Temp/ccHVvlcI.s 			page 16


 856 052c F894      		cli
 857               	 ;  0 "" 2
 858               	/* #NOAPP */
 859 052e 8181      		ldd r24,Z+1
 860 0530 1496      		adiw r26,4
 861 0532 8C93      		st X,r24
 862 0534 1497      		sbiw r26,4
 863 0536 8681      		ldd r24,Z+6
 864 0538 1296      		adiw r26,2
 865 053a 8C93      		st X,r24
 866 053c 1297      		sbiw r26,2
 867 053e 8781      		ldd r24,Z+7
 868 0540 1396      		adiw r26,3
 869 0542 8C93      		st X,r24
 870 0544 1397      		sbiw r26,3
 871 0546 8481      		ldd r24,Z+4
 872 0548 9581      		ldd r25,Z+5
 873 054a 8D93      		st X+,r24
 874 054c 9C93      		st X,r25
 875               	/* #APP */
 876               	 ;  489 "c:/lab2/source/os_mbox.c" 1
 877 054e 7894      		sei
 878               	 ;  0 "" 2
 879               	/* #NOAPP */
 880 0550 80E0      		ldi r24,lo8(0)
 881 0552 0895      		ret
 882               	.L98:
 883 0554 84E0      		ldi r24,lo8(4)
 884 0556 0895      		ret
 885               		.size	OSMboxQuery, .-OSMboxQuery
 886               	.global	OSMemCreate
 887               		.type	OSMemCreate, @function
 888               	OSMemCreate:
 889 0558 2F92      		push r2
 890 055a 3F92      		push r3
 891 055c 4F92      		push r4
 892 055e 5F92      		push r5
 893 0560 6F92      		push r6
 894 0562 7F92      		push r7
 895 0564 8F92      		push r8
 896 0566 9F92      		push r9
 897 0568 AF92      		push r10
 898 056a BF92      		push r11
 899 056c CF92      		push r12
 900 056e DF92      		push r13
 901 0570 EF92      		push r14
 902 0572 FF92      		push r15
 903 0574 0F93      		push r16
 904 0576 1F93      		push r17
 905 0578 CF93      		push r28
 906 057a DF93      		push r29
 907               	/* prologue: function */
 908               	/* frame size = 0 */
 909 057c 2C01      		movw r4,r24
 910 057e 5A01      		movw r10,r20
 911 0580 6B01      		movw r12,r22
 912 0582 3801      		movw r6,r16
GAS LISTING C:\Users\user\AppData\Local\Temp/ccHVvlcI.s 			page 17


 913 0584 4901      		movw r8,r18
 914 0586 1701      		movw r2,r14
 915 0588 0097      		sbiw r24,0
 916 058a 01F4      		brne .+2
 917 058c 00C0      		rjmp .L110
 918 058e 4230      		cpi r20,lo8(2)
 919 0590 5105      		cpc r21,__zero_reg__
 920 0592 6105      		cpc r22,__zero_reg__
 921 0594 7105      		cpc r23,__zero_reg__
 922 0596 00F4      		brsh .+2
 923 0598 00C0      		rjmp .L111
 924 059a 0230      		cpi r16,lo8(2)
 925 059c 1105      		cpc r17,__zero_reg__
 926 059e 2105      		cpc r18,__zero_reg__
 927 05a0 3105      		cpc r19,__zero_reg__
 928 05a2 00F4      		brsh .+2
 929 05a4 00C0      		rjmp .L112
 930               	/* #APP */
 931               	 ;  73 "c:/lab2/source/os_mem.c" 1
 932 05a6 F894      		cli
 933               	 ;  0 "" 2
 934               	/* #NOAPP */
 935 05a8 6091 0000 		lds r22,OSMemFreeList
 936 05ac 7091 0000 		lds r23,(OSMemFreeList)+1
 937 05b0 6115      		cp r22,__zero_reg__
 938 05b2 7105      		cpc r23,__zero_reg__
 939 05b4 01F0      		breq .L104
 940 05b6 FB01      		movw r30,r22
 941 05b8 8281      		ldd r24,Z+2
 942 05ba 9381      		ldd r25,Z+3
 943 05bc 9093 0000 		sts (OSMemFreeList)+1,r25
 944 05c0 8093 0000 		sts OSMemFreeList,r24
 945               	.L104:
 946               	/* #APP */
 947               	 ;  78 "c:/lab2/source/os_mem.c" 1
 948 05c4 7894      		sei
 949               	 ;  0 "" 2
 950               	/* #NOAPP */
 951 05c6 6115      		cp r22,__zero_reg__
 952 05c8 7105      		cpc r23,__zero_reg__
 953 05ca 01F4      		brne .+2
 954 05cc 00C0      		rjmp .L113
 955 05ce E201      		movw r28,r4
 956 05d0 A601      		movw r20,r12
 957 05d2 9501      		movw r18,r10
 958 05d4 2150      		subi r18,lo8(-(-1))
 959 05d6 3040      		sbci r19,hi8(-(-1))
 960 05d8 4040      		sbci r20,hlo8(-(-1))
 961 05da 5040      		sbci r21,hhi8(-(-1))
 962 05dc 01F0      		breq .L106
 963 05de 7301      		movw r14,r6
 964 05e0 8201      		movw r16,r4
 965 05e2 060D      		add r16,r6
 966 05e4 171D      		adc r17,r7
 967 05e6 F801      		movw r30,r16
 968 05e8 80E0      		ldi r24,lo8(0)
 969 05ea 90E0      		ldi r25,hi8(0)
GAS LISTING C:\Users\user\AppData\Local\Temp/ccHVvlcI.s 			page 18


 970 05ec A0E0      		ldi r26,hlo8(0)
 971 05ee B0E0      		ldi r27,hhi8(0)
 972               	.L107:
 973 05f0 F983      		std Y+1,r31
 974 05f2 E883      		st Y,r30
 975 05f4 EF01      		movw r28,r30
 976 05f6 EE0D      		add r30,r14
 977 05f8 FF1D      		adc r31,r15
 978 05fa 0196      		adiw r24,1
 979 05fc A11D      		adc r26,__zero_reg__
 980 05fe B11D      		adc r27,__zero_reg__
 981 0600 8217      		cp r24,r18
 982 0602 9307      		cpc r25,r19
 983 0604 A407      		cpc r26,r20
 984 0606 B507      		cpc r27,r21
 985 0608 00F0      		brlo .L107
 986 060a 8EEF      		ldi r24,lo8(-2)
 987 060c 9FEF      		ldi r25,hi8(-2)
 988 060e AFEF      		ldi r26,hlo8(-2)
 989 0610 BFEF      		ldi r27,hhi8(-2)
 990 0612 A80E      		add r10,r24
 991 0614 B91E      		adc r11,r25
 992 0616 CA1E      		adc r12,r26
 993 0618 DB1E      		adc r13,r27
 994 061a EA9C      		mul r14,r10
 995 061c E001      		movw r28,r0
 996 061e EB9C      		mul r14,r11
 997 0620 D00D      		add r29,r0
 998 0622 FA9C      		mul r15,r10
 999 0624 D00D      		add r29,r0
 1000 0626 1124      		clr r1
 1001 0628 82E0      		ldi r24,lo8(2)
 1002 062a 90E0      		ldi r25,hi8(2)
 1003 062c A0E0      		ldi r26,hlo8(2)
 1004 062e B0E0      		ldi r27,hhi8(2)
 1005 0630 A80E      		add r10,r24
 1006 0632 B91E      		adc r11,r25
 1007 0634 CA1E      		adc r12,r26
 1008 0636 DB1E      		adc r13,r27
 1009 0638 C00F      		add r28,r16
 1010 063a D11F      		adc r29,r17
 1011               	.L106:
 1012 063c 1982      		std Y+1,__zero_reg__
 1013 063e 1882      		st Y,__zero_reg__
 1014 0640 DB01      		movw r26,r22
 1015 0642 1196      		adiw r26,1
 1016 0644 5C92      		st X,r5
 1017 0646 4E92      		st -X,r4
 1018 0648 1396      		adiw r26,2+1
 1019 064a 5C92      		st X,r5
 1020 064c 4E92      		st -X,r4
 1021 064e 1297      		sbiw r26,2
 1022 0650 FB01      		movw r30,r22
 1023 0652 A486      		std Z+12,r10
 1024 0654 B586      		std Z+13,r11
 1025 0656 C686      		std Z+14,r12
 1026 0658 D786      		std Z+15,r13
GAS LISTING C:\Users\user\AppData\Local\Temp/ccHVvlcI.s 			page 19


 1027 065a 1896      		adiw r26,8
 1028 065c AD92      		st X+,r10
 1029 065e BD92      		st X+,r11
 1030 0660 CD92      		st X+,r12
 1031 0662 DC92      		st X,r13
 1032 0664 1B97      		sbiw r26,8+3
 1033 0666 6482      		std Z+4,r6
 1034 0668 7582      		std Z+5,r7
 1035 066a 8682      		std Z+6,r8
 1036 066c 9782      		std Z+7,r9
 1037 066e D101      		movw r26,r2
 1038 0670 1C92      		st X,__zero_reg__
 1039               	.L101:
 1040 0672 CB01      		movw r24,r22
 1041               	/* epilogue start */
 1042 0674 DF91      		pop r29
 1043 0676 CF91      		pop r28
 1044 0678 1F91      		pop r17
 1045 067a 0F91      		pop r16
 1046 067c FF90      		pop r15
 1047 067e EF90      		pop r14
 1048 0680 DF90      		pop r13
 1049 0682 CF90      		pop r12
 1050 0684 BF90      		pop r11
 1051 0686 AF90      		pop r10
 1052 0688 9F90      		pop r9
 1053 068a 8F90      		pop r8
 1054 068c 7F90      		pop r7
 1055 068e 6F90      		pop r6
 1056 0690 5F90      		pop r5
 1057 0692 4F90      		pop r4
 1058 0694 3F90      		pop r3
 1059 0696 2F90      		pop r2
 1060 0698 0895      		ret
 1061               	.L111:
 1062 069a 8FE6      		ldi r24,lo8(111)
 1063 069c F701      		movw r30,r14
 1064 069e 8083      		st Z,r24
 1065 06a0 60E0      		ldi r22,lo8(0)
 1066 06a2 70E0      		ldi r23,hi8(0)
 1067 06a4 00C0      		rjmp .L101
 1068               	.L112:
 1069 06a6 80E7      		ldi r24,lo8(112)
 1070 06a8 D701      		movw r26,r14
 1071 06aa 8C93      		st X,r24
 1072 06ac 60E0      		ldi r22,lo8(0)
 1073 06ae 70E0      		ldi r23,hi8(0)
 1074 06b0 00C0      		rjmp .L101
 1075               	.L110:
 1076 06b2 86E7      		ldi r24,lo8(118)
 1077 06b4 D701      		movw r26,r14
 1078 06b6 8C93      		st X,r24
 1079 06b8 60E0      		ldi r22,lo8(0)
 1080 06ba 70E0      		ldi r23,hi8(0)
 1081 06bc 00C0      		rjmp .L101
 1082               	.L113:
 1083 06be 8EE6      		ldi r24,lo8(110)
GAS LISTING C:\Users\user\AppData\Local\Temp/ccHVvlcI.s 			page 20


 1084 06c0 D101      		movw r26,r2
 1085 06c2 8C93      		st X,r24
 1086 06c4 00C0      		rjmp .L101
 1087               		.size	OSMemCreate, .-OSMemCreate
 1088               	.global	OSMemGet
 1089               		.type	OSMemGet, @function
 1090               	OSMemGet:
 1091 06c6 CF93      		push r28
 1092 06c8 DF93      		push r29
 1093               	/* prologue: function */
 1094               	/* frame size = 0 */
 1095 06ca FC01      		movw r30,r24
 1096 06cc EB01      		movw r28,r22
 1097 06ce 0097      		sbiw r24,0
 1098 06d0 01F0      		breq .L119
 1099               	/* #APP */
 1100               	 ;  134 "c:/lab2/source/os_mem.c" 1
 1101 06d2 F894      		cli
 1102               	 ;  0 "" 2
 1103               	/* #NOAPP */
 1104 06d4 2485      		ldd r18,Z+12
 1105 06d6 3585      		ldd r19,Z+13
 1106 06d8 4685      		ldd r20,Z+14
 1107 06da 5785      		ldd r21,Z+15
 1108 06dc 2115      		cp r18,__zero_reg__
 1109 06de 3105      		cpc r19,__zero_reg__
 1110 06e0 4105      		cpc r20,__zero_reg__
 1111 06e2 5105      		cpc r21,__zero_reg__
 1112 06e4 01F0      		breq .L117
 1113 06e6 A281      		ldd r26,Z+2
 1114 06e8 B381      		ldd r27,Z+3
 1115 06ea 8D91      		ld r24,X+
 1116 06ec 9C91      		ld r25,X
 1117 06ee 1197      		sbiw r26,1
 1118 06f0 9383      		std Z+3,r25
 1119 06f2 8283      		std Z+2,r24
 1120 06f4 2150      		subi r18,lo8(-(-1))
 1121 06f6 3040      		sbci r19,hi8(-(-1))
 1122 06f8 4040      		sbci r20,hlo8(-(-1))
 1123 06fa 5040      		sbci r21,hhi8(-(-1))
 1124 06fc 2487      		std Z+12,r18
 1125 06fe 3587      		std Z+13,r19
 1126 0700 4687      		std Z+14,r20
 1127 0702 5787      		std Z+15,r21
 1128               	/* #APP */
 1129               	 ;  139 "c:/lab2/source/os_mem.c" 1
 1130 0704 7894      		sei
 1131               	 ;  0 "" 2
 1132               	/* #NOAPP */
 1133 0706 1882      		st Y,__zero_reg__
 1134               	.L116:
 1135 0708 CD01      		movw r24,r26
 1136               	/* epilogue start */
 1137 070a DF91      		pop r29
 1138 070c CF91      		pop r28
 1139 070e 0895      		ret
 1140               	.L117:
GAS LISTING C:\Users\user\AppData\Local\Temp/ccHVvlcI.s 			page 21


 1141               	/* #APP */
 1142               	 ;  143 "c:/lab2/source/os_mem.c" 1
 1143 0710 7894      		sei
 1144               	 ;  0 "" 2
 1145               	/* #NOAPP */
 1146 0712 81E7      		ldi r24,lo8(113)
 1147 0714 8883      		st Y,r24
 1148 0716 A0E0      		ldi r26,lo8(0)
 1149 0718 B0E0      		ldi r27,hi8(0)
 1150 071a 00C0      		rjmp .L116
 1151               	.L119:
 1152 071c 84E7      		ldi r24,lo8(116)
 1153 071e 8883      		st Y,r24
 1154 0720 A0E0      		ldi r26,lo8(0)
 1155 0722 B0E0      		ldi r27,hi8(0)
 1156 0724 00C0      		rjmp .L116
 1157               		.size	OSMemGet, .-OSMemGet
 1158               	.global	OSMemPut
 1159               		.type	OSMemPut, @function
 1160               	OSMemPut:
 1161 0726 CF93      		push r28
 1162 0728 DF93      		push r29
 1163               	/* prologue: function */
 1164               	/* frame size = 0 */
 1165 072a FC01      		movw r30,r24
 1166 072c EB01      		movw r28,r22
 1167 072e 0097      		sbiw r24,0
 1168 0730 01F0      		breq .L126
 1169 0732 6115      		cp r22,__zero_reg__
 1170 0734 7105      		cpc r23,__zero_reg__
 1171 0736 01F0      		breq .L127
 1172               	/* #APP */
 1173               	 ;  181 "c:/lab2/source/os_mem.c" 1
 1174 0738 F894      		cli
 1175               	 ;  0 "" 2
 1176               	/* #NOAPP */
 1177 073a 2485      		ldd r18,Z+12
 1178 073c 3585      		ldd r19,Z+13
 1179 073e 4685      		ldd r20,Z+14
 1180 0740 5785      		ldd r21,Z+15
 1181 0742 8085      		ldd r24,Z+8
 1182 0744 9185      		ldd r25,Z+9
 1183 0746 A285      		ldd r26,Z+10
 1184 0748 B385      		ldd r27,Z+11
 1185 074a 2817      		cp r18,r24
 1186 074c 3907      		cpc r19,r25
 1187 074e 4A07      		cpc r20,r26
 1188 0750 5B07      		cpc r21,r27
 1189 0752 00F0      		brlo .L124
 1190               	/* #APP */
 1191               	 ;  183 "c:/lab2/source/os_mem.c" 1
 1192 0754 7894      		sei
 1193               	 ;  0 "" 2
 1194               	/* #NOAPP */
 1195 0756 82E7      		ldi r24,lo8(114)
 1196               	.L122:
 1197               	/* epilogue start */
GAS LISTING C:\Users\user\AppData\Local\Temp/ccHVvlcI.s 			page 22


 1198 0758 DF91      		pop r29
 1199 075a CF91      		pop r28
 1200 075c 0895      		ret
 1201               	.L124:
 1202 075e 8281      		ldd r24,Z+2
 1203 0760 9381      		ldd r25,Z+3
 1204 0762 9983      		std Y+1,r25
 1205 0764 8883      		st Y,r24
 1206 0766 7383      		std Z+3,r23
 1207 0768 6283      		std Z+2,r22
 1208 076a 2F5F      		subi r18,lo8(-(1))
 1209 076c 3F4F      		sbci r19,hi8(-(1))
 1210 076e 4F4F      		sbci r20,hlo8(-(1))
 1211 0770 5F4F      		sbci r21,hhi8(-(1))
 1212 0772 2487      		std Z+12,r18
 1213 0774 3587      		std Z+13,r19
 1214 0776 4687      		std Z+14,r20
 1215 0778 5787      		std Z+15,r21
 1216               	/* #APP */
 1217               	 ;  189 "c:/lab2/source/os_mem.c" 1
 1218 077a 7894      		sei
 1219               	 ;  0 "" 2
 1220               	/* #NOAPP */
 1221 077c 80E0      		ldi r24,lo8(0)
 1222 077e DF91      		pop r29
 1223 0780 CF91      		pop r28
 1224 0782 0895      		ret
 1225               	.L127:
 1226 0784 83E7      		ldi r24,lo8(115)
 1227 0786 DF91      		pop r29
 1228 0788 CF91      		pop r28
 1229 078a 0895      		ret
 1230               	.L126:
 1231 078c 84E7      		ldi r24,lo8(116)
 1232 078e 00C0      		rjmp .L122
 1233               		.size	OSMemPut, .-OSMemPut
 1234               	.global	OSMemQuery
 1235               		.type	OSMemQuery, @function
 1236               	OSMemQuery:
 1237 0790 CF93      		push r28
 1238 0792 DF93      		push r29
 1239               	/* prologue: function */
 1240               	/* frame size = 0 */
 1241 0794 EC01      		movw r28,r24
 1242 0796 FB01      		movw r30,r22
 1243 0798 0097      		sbiw r24,0
 1244 079a 01F0      		breq .L133
 1245 079c 6115      		cp r22,__zero_reg__
 1246 079e 7105      		cpc r23,__zero_reg__
 1247 07a0 01F0      		breq .L134
 1248               	/* #APP */
 1249               	 ;  227 "c:/lab2/source/os_mem.c" 1
 1250 07a2 F894      		cli
 1251               	 ;  0 "" 2
 1252               	/* #NOAPP */
 1253 07a4 8881      		ld r24,Y
 1254 07a6 9981      		ldd r25,Y+1
GAS LISTING C:\Users\user\AppData\Local\Temp/ccHVvlcI.s 			page 23


 1255 07a8 9183      		std Z+1,r25
 1256 07aa 8083      		st Z,r24
 1257 07ac 8A81      		ldd r24,Y+2
 1258 07ae 9B81      		ldd r25,Y+3
 1259 07b0 9383      		std Z+3,r25
 1260 07b2 8283      		std Z+2,r24
 1261 07b4 8C81      		ldd r24,Y+4
 1262 07b6 9D81      		ldd r25,Y+5
 1263 07b8 AE81      		ldd r26,Y+6
 1264 07ba BF81      		ldd r27,Y+7
 1265 07bc 8483      		std Z+4,r24
 1266 07be 9583      		std Z+5,r25
 1267 07c0 A683      		std Z+6,r26
 1268 07c2 B783      		std Z+7,r27
 1269 07c4 8885      		ldd r24,Y+8
 1270 07c6 9985      		ldd r25,Y+9
 1271 07c8 AA85      		ldd r26,Y+10
 1272 07ca BB85      		ldd r27,Y+11
 1273 07cc 8087      		std Z+8,r24
 1274 07ce 9187      		std Z+9,r25
 1275 07d0 A287      		std Z+10,r26
 1276 07d2 B387      		std Z+11,r27
 1277 07d4 2C85      		ldd r18,Y+12
 1278 07d6 3D85      		ldd r19,Y+13
 1279 07d8 4E85      		ldd r20,Y+14
 1280 07da 5F85      		ldd r21,Y+15
 1281 07dc 2487      		std Z+12,r18
 1282 07de 3587      		std Z+13,r19
 1283 07e0 4687      		std Z+14,r20
 1284 07e2 5787      		std Z+15,r21
 1285               	/* #APP */
 1286               	 ;  233 "c:/lab2/source/os_mem.c" 1
 1287 07e4 7894      		sei
 1288               	 ;  0 "" 2
 1289               	/* #NOAPP */
 1290 07e6 821B      		sub r24,r18
 1291 07e8 930B      		sbc r25,r19
 1292 07ea A40B      		sbc r26,r20
 1293 07ec B50B      		sbc r27,r21
 1294 07ee 808B      		std Z+16,r24
 1295 07f0 918B      		std Z+17,r25
 1296 07f2 A28B      		std Z+18,r26
 1297 07f4 B38B      		std Z+19,r27
 1298 07f6 80E0      		ldi r24,lo8(0)
 1299               	.L130:
 1300               	/* epilogue start */
 1301 07f8 DF91      		pop r29
 1302 07fa CF91      		pop r28
 1303 07fc 0895      		ret
 1304               	.L134:
 1305 07fe 85E7      		ldi r24,lo8(117)
 1306 0800 DF91      		pop r29
 1307 0802 CF91      		pop r28
 1308 0804 0895      		ret
 1309               	.L133:
 1310 0806 84E7      		ldi r24,lo8(116)
 1311 0808 00C0      		rjmp .L130
GAS LISTING C:\Users\user\AppData\Local\Temp/ccHVvlcI.s 			page 24


 1312               		.size	OSMemQuery, .-OSMemQuery
 1313               	.global	OS_MemInit
 1314               		.type	OS_MemInit, @function
 1315               	OS_MemInit:
 1316               	/* prologue: function */
 1317               	/* frame size = 0 */
 1318 080a 80E0      		ldi r24,lo8(OSMemTbl)
 1319 080c 90E0      		ldi r25,hi8(OSMemTbl)
 1320 080e 9093 0000 		sts (OSMemFreeList)+1,r25
 1321 0812 8093 0000 		sts OSMemFreeList,r24
 1322 0816 1092 0000 		sts (OSMemTbl+2)+1,__zero_reg__
 1323 081a 1092 0000 		sts OSMemTbl+2,__zero_reg__
 1324 081e 1092 0000 		sts (OSMemTbl)+1,__zero_reg__
 1325 0822 1092 0000 		sts OSMemTbl,__zero_reg__
 1326 0826 1092 0000 		sts OSMemTbl+12,__zero_reg__
 1327 082a 1092 0000 		sts (OSMemTbl+12)+1,__zero_reg__
 1328 082e 1092 0000 		sts (OSMemTbl+12)+2,__zero_reg__
 1329 0832 1092 0000 		sts (OSMemTbl+12)+3,__zero_reg__
 1330 0836 1092 0000 		sts OSMemTbl+8,__zero_reg__
 1331 083a 1092 0000 		sts (OSMemTbl+8)+1,__zero_reg__
 1332 083e 1092 0000 		sts (OSMemTbl+8)+2,__zero_reg__
 1333 0842 1092 0000 		sts (OSMemTbl+8)+3,__zero_reg__
 1334 0846 1092 0000 		sts OSMemTbl+4,__zero_reg__
 1335 084a 1092 0000 		sts (OSMemTbl+4)+1,__zero_reg__
 1336 084e 1092 0000 		sts (OSMemTbl+4)+2,__zero_reg__
 1337 0852 1092 0000 		sts (OSMemTbl+4)+3,__zero_reg__
 1338               	/* epilogue start */
 1339 0856 0895      		ret
 1340               		.size	OS_MemInit, .-OS_MemInit
 1341               	.global	OSMutexAccept
 1342               		.type	OSMutexAccept, @function
 1343               	OSMutexAccept:
 1344 0858 CF93      		push r28
 1345 085a DF93      		push r29
 1346               	/* prologue: function */
 1347               	/* frame size = 0 */
 1348 085c DC01      		movw r26,r24
 1349 085e EB01      		movw r28,r22
 1350 0860 8091 0000 		lds r24,OSIntNesting
 1351 0864 8823      		tst r24
 1352 0866 01F4      		brne .L144
 1353 0868 1097      		sbiw r26,0
 1354 086a 01F0      		breq .L145
 1355 086c 8C91      		ld r24,X
 1356 086e 8430      		cpi r24,lo8(4)
 1357 0870 01F0      		breq .L141
 1358 0872 81E0      		ldi r24,lo8(1)
 1359 0874 8883      		st Y,r24
 1360 0876 80E0      		ldi r24,lo8(0)
 1361               	.L139:
 1362               	/* epilogue start */
 1363 0878 DF91      		pop r29
 1364 087a CF91      		pop r28
 1365 087c 0895      		ret
 1366               	.L144:
 1367 087e 82E0      		ldi r24,lo8(2)
 1368 0880 8883      		st Y,r24
GAS LISTING C:\Users\user\AppData\Local\Temp/ccHVvlcI.s 			page 25


 1369 0882 80E0      		ldi r24,lo8(0)
 1370 0884 DF91      		pop r29
 1371 0886 CF91      		pop r28
 1372 0888 0895      		ret
 1373               	.L145:
 1374 088a 84E0      		ldi r24,lo8(4)
 1375 088c 8883      		st Y,r24
 1376 088e 80E0      		ldi r24,lo8(0)
 1377 0890 00C0      		rjmp .L139
 1378               	.L141:
 1379               	/* #APP */
 1380               	 ;  80 "c:/lab2/source/os_mutex.c" 1
 1381 0892 F894      		cli
 1382               	 ;  0 "" 2
 1383               	/* #NOAPP */
 1384 0894 1296      		adiw r26,2
 1385 0896 2D91      		ld r18,X+
 1386 0898 3C91      		ld r19,X
 1387 089a 1397      		sbiw r26,2+1
 1388 089c 2F3F      		cpi r18,lo8(-1)
 1389 089e 01F0      		breq .L146
 1390               	/* #APP */
 1391               	 ;  89 "c:/lab2/source/os_mutex.c" 1
 1392 08a0 7894      		sei
 1393               	 ;  0 "" 2
 1394               	/* #NOAPP */
 1395 08a2 1882      		st Y,__zero_reg__
 1396 08a4 80E0      		ldi r24,lo8(0)
 1397 08a6 DF91      		pop r29
 1398 08a8 CF91      		pop r28
 1399 08aa 0895      		ret
 1400               	.L146:
 1401 08ac E091 0000 		lds r30,OSTCBCur
 1402 08b0 F091 0000 		lds r31,(OSTCBCur)+1
 1403 08b4 848D      		ldd r24,Z+28
 1404 08b6 90E0      		ldi r25,lo8(0)
 1405 08b8 2070      		andi r18,lo8(-256)
 1406 08ba 822B      		or r24,r18
 1407 08bc 932B      		or r25,r19
 1408 08be 1396      		adiw r26,2+1
 1409 08c0 9C93      		st X,r25
 1410 08c2 8E93      		st -X,r24
 1411 08c4 1297      		sbiw r26,2
 1412 08c6 1596      		adiw r26,4+1
 1413 08c8 FC93      		st X,r31
 1414 08ca EE93      		st -X,r30
 1415 08cc 1497      		sbiw r26,4
 1416               	/* #APP */
 1417               	 ;  85 "c:/lab2/source/os_mutex.c" 1
 1418 08ce 7894      		sei
 1419               	 ;  0 "" 2
 1420               	/* #NOAPP */
 1421 08d0 1882      		st Y,__zero_reg__
 1422 08d2 81E0      		ldi r24,lo8(1)
 1423 08d4 00C0      		rjmp .L139
 1424               		.size	OSMutexAccept, .-OSMutexAccept
 1425               	.global	OSMutexCreate
GAS LISTING C:\Users\user\AppData\Local\Temp/ccHVvlcI.s 			page 26


 1426               		.type	OSMutexCreate, @function
 1427               	OSMutexCreate:
 1428 08d6 CF93      		push r28
 1429 08d8 DF93      		push r29
 1430               	/* prologue: function */
 1431               	/* frame size = 0 */
 1432 08da 982F      		mov r25,r24
 1433 08dc EB01      		movw r28,r22
 1434 08de 8091 0000 		lds r24,OSIntNesting
 1435 08e2 8823      		tst r24
 1436 08e4 01F0      		breq .+2
 1437 08e6 00C0      		rjmp .L154
 1438 08e8 9C30      		cpi r25,lo8(12)
 1439 08ea 00F0      		brlo .+2
 1440 08ec 00C0      		rjmp .L155
 1441               	/* #APP */
 1442               	 ;  147 "c:/lab2/source/os_mutex.c" 1
 1443 08ee F894      		cli
 1444               	 ;  0 "" 2
 1445               	/* #NOAPP */
 1446 08f0 292F      		mov r18,r25
 1447 08f2 30E0      		ldi r19,lo8(0)
 1448 08f4 D901      		movw r26,r18
 1449 08f6 AA0F      		lsl r26
 1450 08f8 BB1F      		rol r27
 1451 08fa A050      		subi r26,lo8(-(OSTCBPrioTbl))
 1452 08fc B040      		sbci r27,hi8(-(OSTCBPrioTbl))
 1453 08fe 8D91      		ld r24,X+
 1454 0900 9C91      		ld r25,X
 1455 0902 1197      		sbiw r26,1
 1456 0904 892B      		or r24,r25
 1457 0906 01F4      		brne .L156
 1458 0908 81E0      		ldi r24,lo8(1)
 1459 090a 90E0      		ldi r25,hi8(1)
 1460 090c 1196      		adiw r26,1
 1461 090e 9C93      		st X,r25
 1462 0910 8E93      		st -X,r24
 1463 0912 E091 0000 		lds r30,OSEventFreeList
 1464 0916 F091 0000 		lds r31,(OSEventFreeList)+1
 1465 091a 3097      		sbiw r30,0
 1466 091c 01F0      		breq .L157
 1467 091e 8481      		ldd r24,Z+4
 1468 0920 9581      		ldd r25,Z+5
 1469 0922 9093 0000 		sts (OSEventFreeList)+1,r25
 1470 0926 8093 0000 		sts OSEventFreeList,r24
 1471               	/* #APP */
 1472               	 ;  162 "c:/lab2/source/os_mutex.c" 1
 1473 092a 7894      		sei
 1474               	 ;  0 "" 2
 1475               	/* #NOAPP */
 1476 092c 84E0      		ldi r24,lo8(4)
 1477 092e 8083      		st Z,r24
 1478 0930 922F      		mov r25,r18
 1479 0932 8827      		clr r24
 1480 0934 8F6F      		ori r24,lo8(255)
 1481 0936 9383      		std Z+3,r25
 1482 0938 8283      		std Z+2,r24
GAS LISTING C:\Users\user\AppData\Local\Temp/ccHVvlcI.s 			page 27


 1483 093a 1582      		std Z+5,__zero_reg__
 1484 093c 1482      		std Z+4,__zero_reg__
 1485 093e 1182      		std Z+1,__zero_reg__
 1486 0940 1682      		std Z+6,__zero_reg__
 1487 0942 1782      		std Z+7,__zero_reg__
 1488 0944 1882      		st Y,__zero_reg__
 1489               	.L149:
 1490 0946 CF01      		movw r24,r30
 1491               	/* epilogue start */
 1492 0948 DF91      		pop r29
 1493 094a CF91      		pop r28
 1494 094c 0895      		ret
 1495               	.L156:
 1496               	/* #APP */
 1497               	 ;  149 "c:/lab2/source/os_mutex.c" 1
 1498 094e 7894      		sei
 1499               	 ;  0 "" 2
 1500               	/* #NOAPP */
 1501 0950 88E2      		ldi r24,lo8(40)
 1502 0952 8883      		st Y,r24
 1503 0954 E0E0      		ldi r30,lo8(0)
 1504 0956 F0E0      		ldi r31,hi8(0)
 1505 0958 CF01      		movw r24,r30
 1506 095a DF91      		pop r29
 1507 095c CF91      		pop r28
 1508 095e 0895      		ret
 1509               	.L157:
 1510 0960 1D92      		st X+,__zero_reg__
 1511 0962 1C92      		st X,__zero_reg__
 1512               	/* #APP */
 1513               	 ;  157 "c:/lab2/source/os_mutex.c" 1
 1514 0964 7894      		sei
 1515               	 ;  0 "" 2
 1516               	/* #NOAPP */
 1517 0966 84E0      		ldi r24,lo8(4)
 1518 0968 8883      		st Y,r24
 1519 096a 00C0      		rjmp .L149
 1520               	.L154:
 1521 096c 8DE8      		ldi r24,lo8(-115)
 1522 096e 8883      		st Y,r24
 1523 0970 E0E0      		ldi r30,lo8(0)
 1524 0972 F0E0      		ldi r31,hi8(0)
 1525 0974 00C0      		rjmp .L149
 1526               	.L155:
 1527 0976 8AE2      		ldi r24,lo8(42)
 1528 0978 8883      		st Y,r24
 1529 097a E0E0      		ldi r30,lo8(0)
 1530 097c F0E0      		ldi r31,hi8(0)
 1531 097e 00C0      		rjmp .L149
 1532               		.size	OSMutexCreate, .-OSMutexCreate
 1533               	.global	OSMutexQuery
 1534               		.type	OSMutexQuery, @function
 1535               	OSMutexQuery:
 1536               	/* prologue: function */
 1537               	/* frame size = 0 */
 1538 0980 FC01      		movw r30,r24
 1539 0982 DB01      		movw r26,r22
GAS LISTING C:\Users\user\AppData\Local\Temp/ccHVvlcI.s 			page 28


 1540 0984 8091 0000 		lds r24,OSIntNesting
 1541 0988 8823      		tst r24
 1542 098a 01F4      		brne .L166
 1543 098c 3097      		sbiw r30,0
 1544 098e 01F0      		breq .L167
 1545 0990 8081      		ld r24,Z
 1546 0992 8430      		cpi r24,lo8(4)
 1547 0994 01F0      		breq .L162
 1548 0996 81E0      		ldi r24,lo8(1)
 1549 0998 0895      		ret
 1550               	.L162:
 1551               	/* #APP */
 1552               	 ;  497 "c:/lab2/source/os_mutex.c" 1
 1553 099a F894      		cli
 1554               	 ;  0 "" 2
 1555               	/* #NOAPP */
 1556 099c 9281      		ldd r25,Z+2
 1557 099e 8381      		ldd r24,Z+3
 1558 09a0 1596      		adiw r26,5
 1559 09a2 8C93      		st X,r24
 1560 09a4 1597      		sbiw r26,5
 1561 09a6 1496      		adiw r26,4
 1562 09a8 9C93      		st X,r25
 1563 09aa 1497      		sbiw r26,4
 1564 09ac 9F3F      		cpi r25,lo8(-1)
 1565 09ae 01F0      		breq .L168
 1566 09b0 1396      		adiw r26,3
 1567 09b2 1C92      		st X,__zero_reg__
 1568 09b4 1397      		sbiw r26,3
 1569               	.L164:
 1570 09b6 8181      		ldd r24,Z+1
 1571 09b8 1296      		adiw r26,2
 1572 09ba 8C93      		st X,r24
 1573 09bc 1297      		sbiw r26,2
 1574 09be 8681      		ldd r24,Z+6
 1575 09c0 8C93      		st X,r24
 1576 09c2 8781      		ldd r24,Z+7
 1577 09c4 1196      		adiw r26,1
 1578 09c6 8C93      		st X,r24
 1579               	/* #APP */
 1580               	 ;  539 "c:/lab2/source/os_mutex.c" 1
 1581 09c8 7894      		sei
 1582               	 ;  0 "" 2
 1583               	/* #NOAPP */
 1584 09ca 80E0      		ldi r24,lo8(0)
 1585 09cc 0895      		ret
 1586               	.L166:
 1587 09ce 86E0      		ldi r24,lo8(6)
 1588 09d0 0895      		ret
 1589               	.L168:
 1590 09d2 81E0      		ldi r24,lo8(1)
 1591 09d4 1396      		adiw r26,3
 1592 09d6 8C93      		st X,r24
 1593 09d8 1397      		sbiw r26,3
 1594 09da 00C0      		rjmp .L164
 1595               	.L167:
 1596 09dc 84E0      		ldi r24,lo8(4)
GAS LISTING C:\Users\user\AppData\Local\Temp/ccHVvlcI.s 			page 29


 1597 09de 0895      		ret
 1598               		.size	OSMutexQuery, .-OSMutexQuery
 1599               	.global	OSQAccept
 1600               		.type	OSQAccept, @function
 1601               	OSQAccept:
 1602               	/* prologue: function */
 1603               	/* frame size = 0 */
 1604 09e0 FC01      		movw r30,r24
 1605 09e2 0097      		sbiw r24,0
 1606 09e4 01F4      		brne .L175
 1607               	.L170:
 1608 09e6 20E0      		ldi r18,lo8(0)
 1609 09e8 30E0      		ldi r19,hi8(0)
 1610               	.L173:
 1611 09ea C901      		movw r24,r18
 1612               	/* epilogue start */
 1613 09ec 0895      		ret
 1614               	.L175:
 1615 09ee 8081      		ld r24,Z
 1616 09f0 8230      		cpi r24,lo8(2)
 1617 09f2 01F4      		brne .L170
 1618               	/* #APP */
 1619               	 ;  56 "c:/lab2/source/os_q.c" 1
 1620 09f4 F894      		cli
 1621               	 ;  0 "" 2
 1622               	/* #NOAPP */
 1623 09f6 A481      		ldd r26,Z+4
 1624 09f8 B581      		ldd r27,Z+5
 1625 09fa 1C96      		adiw r26,12
 1626 09fc 8D91      		ld r24,X+
 1627 09fe 9C91      		ld r25,X
 1628 0a00 1D97      		sbiw r26,12+1
 1629 0a02 0097      		sbiw r24,0
 1630 0a04 01F0      		breq .L176
 1631 0a06 1896      		adiw r26,8
 1632 0a08 ED91      		ld r30,X+
 1633 0a0a FC91      		ld r31,X
 1634 0a0c 1997      		sbiw r26,8+1
 1635 0a0e 2191      		ld r18,Z+
 1636 0a10 3191      		ld r19,Z+
 1637 0a12 1996      		adiw r26,8+1
 1638 0a14 FC93      		st X,r31
 1639 0a16 EE93      		st -X,r30
 1640 0a18 1897      		sbiw r26,8
 1641 0a1a 0197      		sbiw r24,1
 1642 0a1c 1D96      		adiw r26,12+1
 1643 0a1e 9C93      		st X,r25
 1644 0a20 8E93      		st -X,r24
 1645 0a22 1C97      		sbiw r26,12
 1646 0a24 1496      		adiw r26,4
 1647 0a26 8D91      		ld r24,X+
 1648 0a28 9C91      		ld r25,X
 1649 0a2a 1597      		sbiw r26,4+1
 1650 0a2c E817      		cp r30,r24
 1651 0a2e F907      		cpc r31,r25
 1652 0a30 01F4      		brne .L172
 1653 0a32 1296      		adiw r26,2
GAS LISTING C:\Users\user\AppData\Local\Temp/ccHVvlcI.s 			page 30


 1654 0a34 8D91      		ld r24,X+
 1655 0a36 9C91      		ld r25,X
 1656 0a38 1397      		sbiw r26,2+1
 1657 0a3a 1996      		adiw r26,8+1
 1658 0a3c 9C93      		st X,r25
 1659 0a3e 8E93      		st -X,r24
 1660 0a40 1897      		sbiw r26,8
 1661 0a42 00C0      		rjmp .L172
 1662               	.L176:
 1663 0a44 20E0      		ldi r18,lo8(0)
 1664 0a46 30E0      		ldi r19,hi8(0)
 1665               	.L172:
 1666               	/* #APP */
 1667               	 ;  67 "c:/lab2/source/os_q.c" 1
 1668 0a48 7894      		sei
 1669               	 ;  0 "" 2
 1670               	/* #NOAPP */
 1671 0a4a 00C0      		rjmp .L173
 1672               		.size	OSQAccept, .-OSQAccept
 1673               	.global	OSQCreate
 1674               		.type	OSQCreate, @function
 1675               	OSQCreate:
 1676               	/* prologue: function */
 1677               	/* frame size = 0 */
 1678 0a4c 9C01      		movw r18,r24
 1679 0a4e 8091 0000 		lds r24,OSIntNesting
 1680 0a52 8823      		tst r24
 1681 0a54 01F0      		breq .+2
 1682 0a56 00C0      		rjmp .L183
 1683               	/* #APP */
 1684               	 ;  103 "c:/lab2/source/os_q.c" 1
 1685 0a58 F894      		cli
 1686               	 ;  0 "" 2
 1687               	/* #NOAPP */
 1688 0a5a E091 0000 		lds r30,OSEventFreeList
 1689 0a5e F091 0000 		lds r31,(OSEventFreeList)+1
 1690 0a62 3097      		sbiw r30,0
 1691 0a64 01F0      		breq .L180
 1692 0a66 8481      		ldd r24,Z+4
 1693 0a68 9581      		ldd r25,Z+5
 1694 0a6a 9093 0000 		sts (OSEventFreeList)+1,r25
 1695 0a6e 8093 0000 		sts OSEventFreeList,r24
 1696               	.L180:
 1697               	/* #APP */
 1698               	 ;  108 "c:/lab2/source/os_q.c" 1
 1699 0a72 7894      		sei
 1700               	 ;  0 "" 2
 1701               	/* #NOAPP */
 1702 0a74 3097      		sbiw r30,0
 1703 0a76 01F0      		breq .L179
 1704               	/* #APP */
 1705               	 ;  110 "c:/lab2/source/os_q.c" 1
 1706 0a78 F894      		cli
 1707               	 ;  0 "" 2
 1708               	/* #NOAPP */
 1709 0a7a A091 0000 		lds r26,OSQFreeList
 1710 0a7e B091 0000 		lds r27,(OSQFreeList)+1
GAS LISTING C:\Users\user\AppData\Local\Temp/ccHVvlcI.s 			page 31


 1711 0a82 1097      		sbiw r26,0
 1712 0a84 01F0      		breq .L181
 1713 0a86 8D91      		ld r24,X+
 1714 0a88 9C91      		ld r25,X
 1715 0a8a 1197      		sbiw r26,1
 1716 0a8c 9093 0000 		sts (OSQFreeList)+1,r25
 1717 0a90 8093 0000 		sts OSQFreeList,r24
 1718               	/* #APP */
 1719               	 ;  114 "c:/lab2/source/os_q.c" 1
 1720 0a94 7894      		sei
 1721               	 ;  0 "" 2
 1722               	/* #NOAPP */
 1723 0a96 1396      		adiw r26,2+1
 1724 0a98 3C93      		st X,r19
 1725 0a9a 2E93      		st -X,r18
 1726 0a9c 1297      		sbiw r26,2
 1727 0a9e CB01      		movw r24,r22
 1728 0aa0 880F      		lsl r24
 1729 0aa2 991F      		rol r25
 1730 0aa4 820F      		add r24,r18
 1731 0aa6 931F      		adc r25,r19
 1732 0aa8 1596      		adiw r26,4+1
 1733 0aaa 9C93      		st X,r25
 1734 0aac 8E93      		st -X,r24
 1735 0aae 1497      		sbiw r26,4
 1736 0ab0 1796      		adiw r26,6+1
 1737 0ab2 3C93      		st X,r19
 1738 0ab4 2E93      		st -X,r18
 1739 0ab6 1697      		sbiw r26,6
 1740 0ab8 1996      		adiw r26,8+1
 1741 0aba 3C93      		st X,r19
 1742 0abc 2E93      		st -X,r18
 1743 0abe 1897      		sbiw r26,8
 1744 0ac0 1B96      		adiw r26,10+1
 1745 0ac2 7C93      		st X,r23
 1746 0ac4 6E93      		st -X,r22
 1747 0ac6 1A97      		sbiw r26,10
 1748 0ac8 1D96      		adiw r26,12+1
 1749 0aca 1C92      		st X,__zero_reg__
 1750 0acc 1E92      		st -X,__zero_reg__
 1751 0ace 1C97      		sbiw r26,12
 1752 0ad0 82E0      		ldi r24,lo8(2)
 1753 0ad2 8083      		st Z,r24
 1754 0ad4 1382      		std Z+3,__zero_reg__
 1755 0ad6 1282      		std Z+2,__zero_reg__
 1756 0ad8 B583      		std Z+5,r27
 1757 0ada A483      		std Z+4,r26
 1758 0adc 1182      		std Z+1,__zero_reg__
 1759 0ade 1682      		std Z+6,__zero_reg__
 1760 0ae0 1782      		std Z+7,__zero_reg__
 1761               	.L179:
 1762 0ae2 CF01      		movw r24,r30
 1763               	/* epilogue start */
 1764 0ae4 0895      		ret
 1765               	.L181:
 1766 0ae6 8091 0000 		lds r24,OSEventFreeList
 1767 0aea 9091 0000 		lds r25,(OSEventFreeList)+1
GAS LISTING C:\Users\user\AppData\Local\Temp/ccHVvlcI.s 			page 32


 1768 0aee 9583      		std Z+5,r25
 1769 0af0 8483      		std Z+4,r24
 1770 0af2 F093 0000 		sts (OSEventFreeList)+1,r31
 1771 0af6 E093 0000 		sts OSEventFreeList,r30
 1772               	/* #APP */
 1773               	 ;  128 "c:/lab2/source/os_q.c" 1
 1774 0afa 7894      		sei
 1775               	 ;  0 "" 2
 1776               	/* #NOAPP */
 1777               	.L183:
 1778 0afc E0E0      		ldi r30,lo8(0)
 1779 0afe F0E0      		ldi r31,hi8(0)
 1780 0b00 CF01      		movw r24,r30
 1781 0b02 0895      		ret
 1782               		.size	OSQCreate, .-OSQCreate
 1783               	.global	OSQFlush
 1784               		.type	OSQFlush, @function
 1785               	OSQFlush:
 1786               	/* prologue: function */
 1787               	/* frame size = 0 */
 1788 0b04 FC01      		movw r30,r24
 1789 0b06 0097      		sbiw r24,0
 1790 0b08 01F0      		breq .L189
 1791 0b0a 8081      		ld r24,Z
 1792 0b0c 8230      		cpi r24,lo8(2)
 1793 0b0e 01F0      		breq .L187
 1794 0b10 81E0      		ldi r24,lo8(1)
 1795 0b12 0895      		ret
 1796               	.L187:
 1797               	/* #APP */
 1798               	 ;  281 "c:/lab2/source/os_q.c" 1
 1799 0b14 F894      		cli
 1800               	 ;  0 "" 2
 1801               	/* #NOAPP */
 1802 0b16 0480      		ldd __tmp_reg__,Z+4
 1803 0b18 F581      		ldd r31,Z+5
 1804 0b1a E02D      		mov r30,__tmp_reg__
 1805 0b1c 8281      		ldd r24,Z+2
 1806 0b1e 9381      		ldd r25,Z+3
 1807 0b20 9783      		std Z+7,r25
 1808 0b22 8683      		std Z+6,r24
 1809 0b24 9187      		std Z+9,r25
 1810 0b26 8087      		std Z+8,r24
 1811 0b28 1586      		std Z+13,__zero_reg__
 1812 0b2a 1486      		std Z+12,__zero_reg__
 1813               	/* #APP */
 1814               	 ;  286 "c:/lab2/source/os_q.c" 1
 1815 0b2c 7894      		sei
 1816               	 ;  0 "" 2
 1817               	/* #NOAPP */
 1818 0b2e 80E0      		ldi r24,lo8(0)
 1819 0b30 0895      		ret
 1820               	.L189:
 1821 0b32 84E0      		ldi r24,lo8(4)
 1822 0b34 0895      		ret
 1823               		.size	OSQFlush, .-OSQFlush
 1824               	.global	OSQQuery
GAS LISTING C:\Users\user\AppData\Local\Temp/ccHVvlcI.s 			page 33


 1825               		.type	OSQQuery, @function
 1826               	OSQQuery:
 1827 0b36 CF93      		push r28
 1828 0b38 DF93      		push r29
 1829               	/* prologue: function */
 1830               	/* frame size = 0 */
 1831 0b3a FC01      		movw r30,r24
 1832 0b3c DB01      		movw r26,r22
 1833 0b3e 0097      		sbiw r24,0
 1834 0b40 01F0      		breq .L197
 1835 0b42 8081      		ld r24,Z
 1836 0b44 8230      		cpi r24,lo8(2)
 1837 0b46 01F0      		breq .L193
 1838 0b48 81E0      		ldi r24,lo8(1)
 1839               	/* epilogue start */
 1840 0b4a DF91      		pop r29
 1841 0b4c CF91      		pop r28
 1842 0b4e 0895      		ret
 1843               	.L193:
 1844               	/* #APP */
 1845               	 ;  637 "c:/lab2/source/os_q.c" 1
 1846 0b50 F894      		cli
 1847               	 ;  0 "" 2
 1848               	/* #NOAPP */
 1849 0b52 8181      		ldd r24,Z+1
 1850 0b54 1896      		adiw r26,8
 1851 0b56 8C93      		st X,r24
 1852 0b58 1897      		sbiw r26,8
 1853 0b5a 8681      		ldd r24,Z+6
 1854 0b5c 1696      		adiw r26,6
 1855 0b5e 8C93      		st X,r24
 1856 0b60 1697      		sbiw r26,6
 1857 0b62 8781      		ldd r24,Z+7
 1858 0b64 1796      		adiw r26,7
 1859 0b66 8C93      		st X,r24
 1860 0b68 1797      		sbiw r26,7
 1861 0b6a C481      		ldd r28,Z+4
 1862 0b6c D581      		ldd r29,Z+5
 1863 0b6e 2C85      		ldd r18,Y+12
 1864 0b70 3D85      		ldd r19,Y+13
 1865 0b72 2115      		cp r18,__zero_reg__
 1866 0b74 3105      		cpc r19,__zero_reg__
 1867 0b76 01F4      		brne .L198
 1868 0b78 1196      		adiw r26,1
 1869 0b7a 1C92      		st X,__zero_reg__
 1870 0b7c 1E92      		st -X,__zero_reg__
 1871               	.L195:
 1872 0b7e 1396      		adiw r26,2+1
 1873 0b80 3C93      		st X,r19
 1874 0b82 2E93      		st -X,r18
 1875 0b84 1297      		sbiw r26,2
 1876 0b86 8A85      		ldd r24,Y+10
 1877 0b88 9B85      		ldd r25,Y+11
 1878 0b8a 1596      		adiw r26,4+1
 1879 0b8c 9C93      		st X,r25
 1880 0b8e 8E93      		st -X,r24
 1881 0b90 1497      		sbiw r26,4
GAS LISTING C:\Users\user\AppData\Local\Temp/ccHVvlcI.s 			page 34


 1882               	/* #APP */
 1883               	 ;  680 "c:/lab2/source/os_q.c" 1
 1884 0b92 7894      		sei
 1885               	 ;  0 "" 2
 1886               	/* #NOAPP */
 1887 0b94 80E0      		ldi r24,lo8(0)
 1888 0b96 DF91      		pop r29
 1889 0b98 CF91      		pop r28
 1890 0b9a 0895      		ret
 1891               	.L198:
 1892 0b9c E885      		ldd r30,Y+8
 1893 0b9e F985      		ldd r31,Y+9
 1894 0ba0 8081      		ld r24,Z
 1895 0ba2 9181      		ldd r25,Z+1
 1896 0ba4 1196      		adiw r26,1
 1897 0ba6 9C93      		st X,r25
 1898 0ba8 8E93      		st -X,r24
 1899 0baa 00C0      		rjmp .L195
 1900               	.L197:
 1901 0bac 84E0      		ldi r24,lo8(4)
 1902 0bae DF91      		pop r29
 1903 0bb0 CF91      		pop r28
 1904 0bb2 0895      		ret
 1905               		.size	OSQQuery, .-OSQQuery
 1906               	.global	OS_QInit
 1907               		.type	OS_QInit, @function
 1908               	OS_QInit:
 1909               	/* prologue: function */
 1910               	/* frame size = 0 */
 1911 0bb4 80E0      		ldi r24,lo8(OSQTbl+14)
 1912 0bb6 90E0      		ldi r25,hi8(OSQTbl+14)
 1913 0bb8 9093 0000 		sts (OSQTbl)+1,r25
 1914 0bbc 8093 0000 		sts OSQTbl,r24
 1915 0bc0 0E97      		sbiw r24,14
 1916 0bc2 1092 0000 		sts (OSQTbl+14)+1,__zero_reg__
 1917 0bc6 1092 0000 		sts OSQTbl+14,__zero_reg__
 1918 0bca 9093 0000 		sts (OSQFreeList)+1,r25
 1919 0bce 8093 0000 		sts OSQFreeList,r24
 1920               	/* epilogue start */
 1921 0bd2 0895      		ret
 1922               		.size	OS_QInit, .-OS_QInit
 1923               	.global	OSSemAccept
 1924               		.type	OSSemAccept, @function
 1925               	OSSemAccept:
 1926               	/* prologue: function */
 1927               	/* frame size = 0 */
 1928 0bd4 FC01      		movw r30,r24
 1929 0bd6 0097      		sbiw r24,0
 1930 0bd8 01F0      		breq .L202
 1931 0bda 8081      		ld r24,Z
 1932 0bdc 8330      		cpi r24,lo8(3)
 1933 0bde 01F0      		breq .L206
 1934               	.L202:
 1935 0be0 20E0      		ldi r18,lo8(0)
 1936 0be2 30E0      		ldi r19,hi8(0)
 1937 0be4 C901      		movw r24,r18
 1938               	/* epilogue start */
GAS LISTING C:\Users\user\AppData\Local\Temp/ccHVvlcI.s 			page 35


 1939 0be6 0895      		ret
 1940               	.L206:
 1941               	/* #APP */
 1942               	 ;  55 "c:/lab2/source/os_sem.c" 1
 1943 0be8 F894      		cli
 1944               	 ;  0 "" 2
 1945               	/* #NOAPP */
 1946 0bea 2281      		ldd r18,Z+2
 1947 0bec 3381      		ldd r19,Z+3
 1948 0bee 2115      		cp r18,__zero_reg__
 1949 0bf0 3105      		cpc r19,__zero_reg__
 1950 0bf2 01F0      		breq .L203
 1951 0bf4 2150      		subi r18,lo8(-(-1))
 1952 0bf6 3040      		sbci r19,hi8(-(-1))
 1953 0bf8 3383      		std Z+3,r19
 1954 0bfa 2283      		std Z+2,r18
 1955 0bfc 2F5F      		subi r18,lo8(-(1))
 1956 0bfe 3F4F      		sbci r19,hi8(-(1))
 1957               	.L203:
 1958               	/* #APP */
 1959               	 ;  60 "c:/lab2/source/os_sem.c" 1
 1960 0c00 7894      		sei
 1961               	 ;  0 "" 2
 1962               	/* #NOAPP */
 1963 0c02 C901      		movw r24,r18
 1964 0c04 0895      		ret
 1965               		.size	OSSemAccept, .-OSSemAccept
 1966               	.global	OSSemCreate
 1967               		.type	OSSemCreate, @function
 1968               	OSSemCreate:
 1969               	/* prologue: function */
 1970               	/* frame size = 0 */
 1971 0c06 9C01      		movw r18,r24
 1972 0c08 8091 0000 		lds r24,OSIntNesting
 1973 0c0c 8823      		tst r24
 1974 0c0e 01F4      		brne .L212
 1975               	/* #APP */
 1976               	 ;  94 "c:/lab2/source/os_sem.c" 1
 1977 0c10 F894      		cli
 1978               	 ;  0 "" 2
 1979               	/* #NOAPP */
 1980 0c12 E091 0000 		lds r30,OSEventFreeList
 1981 0c16 F091 0000 		lds r31,(OSEventFreeList)+1
 1982 0c1a 3097      		sbiw r30,0
 1983 0c1c 01F0      		breq .L210
 1984 0c1e 8481      		ldd r24,Z+4
 1985 0c20 9581      		ldd r25,Z+5
 1986 0c22 9093 0000 		sts (OSEventFreeList)+1,r25
 1987 0c26 8093 0000 		sts OSEventFreeList,r24
 1988               	.L210:
 1989               	/* #APP */
 1990               	 ;  99 "c:/lab2/source/os_sem.c" 1
 1991 0c2a 7894      		sei
 1992               	 ;  0 "" 2
 1993               	/* #NOAPP */
 1994 0c2c 3097      		sbiw r30,0
 1995 0c2e 01F0      		breq .L209
GAS LISTING C:\Users\user\AppData\Local\Temp/ccHVvlcI.s 			page 36


 1996 0c30 83E0      		ldi r24,lo8(3)
 1997 0c32 8083      		st Z,r24
 1998 0c34 3383      		std Z+3,r19
 1999 0c36 2283      		std Z+2,r18
 2000 0c38 1582      		std Z+5,__zero_reg__
 2001 0c3a 1482      		std Z+4,__zero_reg__
 2002 0c3c 1182      		std Z+1,__zero_reg__
 2003 0c3e 1682      		std Z+6,__zero_reg__
 2004 0c40 1782      		std Z+7,__zero_reg__
 2005               	.L209:
 2006 0c42 CF01      		movw r24,r30
 2007               	/* epilogue start */
 2008 0c44 0895      		ret
 2009               	.L212:
 2010 0c46 E0E0      		ldi r30,lo8(0)
 2011 0c48 F0E0      		ldi r31,hi8(0)
 2012 0c4a CF01      		movw r24,r30
 2013 0c4c 0895      		ret
 2014               		.size	OSSemCreate, .-OSSemCreate
 2015               	.global	OSSemQuery
 2016               		.type	OSSemQuery, @function
 2017               	OSSemQuery:
 2018               	/* prologue: function */
 2019               	/* frame size = 0 */
 2020 0c4e FC01      		movw r30,r24
 2021 0c50 DB01      		movw r26,r22
 2022 0c52 0097      		sbiw r24,0
 2023 0c54 01F0      		breq .L218
 2024 0c56 8081      		ld r24,Z
 2025 0c58 8330      		cpi r24,lo8(3)
 2026 0c5a 01F0      		breq .L216
 2027 0c5c 81E0      		ldi r24,lo8(1)
 2028 0c5e 0895      		ret
 2029               	.L216:
 2030               	/* #APP */
 2031               	 ;  375 "c:/lab2/source/os_sem.c" 1
 2032 0c60 F894      		cli
 2033               	 ;  0 "" 2
 2034               	/* #NOAPP */
 2035 0c62 8181      		ldd r24,Z+1
 2036 0c64 1496      		adiw r26,4
 2037 0c66 8C93      		st X,r24
 2038 0c68 1497      		sbiw r26,4
 2039 0c6a 8681      		ldd r24,Z+6
 2040 0c6c 1296      		adiw r26,2
 2041 0c6e 8C93      		st X,r24
 2042 0c70 1297      		sbiw r26,2
 2043 0c72 8781      		ldd r24,Z+7
 2044 0c74 1396      		adiw r26,3
 2045 0c76 8C93      		st X,r24
 2046 0c78 1397      		sbiw r26,3
 2047 0c7a 8281      		ldd r24,Z+2
 2048 0c7c 9381      		ldd r25,Z+3
 2049 0c7e 8D93      		st X+,r24
 2050 0c80 9C93      		st X,r25
 2051               	/* #APP */
 2052               	 ;  411 "c:/lab2/source/os_sem.c" 1
GAS LISTING C:\Users\user\AppData\Local\Temp/ccHVvlcI.s 			page 37


 2053 0c82 7894      		sei
 2054               	 ;  0 "" 2
 2055               	/* #NOAPP */
 2056 0c84 80E0      		ldi r24,lo8(0)
 2057 0c86 0895      		ret
 2058               	.L218:
 2059 0c88 84E0      		ldi r24,lo8(4)
 2060 0c8a 0895      		ret
 2061               		.size	OSSemQuery, .-OSSemQuery
 2062               	.global	OSTaskDelReq
 2063               		.type	OSTaskDelReq, @function
 2064               	OSTaskDelReq:
 2065               	/* prologue: function */
 2066               	/* frame size = 0 */
 2067 0c8c E82F      		mov r30,r24
 2068 0c8e 8C30      		cpi r24,lo8(12)
 2069 0c90 01F0      		breq .L227
 2070 0c92 8C50      		subi r24,lo8(-(-12))
 2071 0c94 833F      		cpi r24,lo8(-13)
 2072 0c96 00F0      		brlo .L228
 2073 0c98 EF3F      		cpi r30,lo8(-1)
 2074 0c9a 01F0      		breq .L229
 2075               	/* #APP */
 2076               	 ;  510 "c:/lab2/source/os_task.c" 1
 2077 0c9c F894      		cli
 2078               	 ;  0 "" 2
 2079               	/* #NOAPP */
 2080 0c9e F0E0      		ldi r31,lo8(0)
 2081 0ca0 EE0F      		lsl r30
 2082 0ca2 FF1F      		rol r31
 2083 0ca4 E050      		subi r30,lo8(-(OSTCBPrioTbl))
 2084 0ca6 F040      		sbci r31,hi8(-(OSTCBPrioTbl))
 2085 0ca8 0190      		ld __tmp_reg__,Z+
 2086 0caa F081      		ld r31,Z
 2087 0cac E02D      		mov r30,__tmp_reg__
 2088 0cae 3097      		sbiw r30,0
 2089 0cb0 01F0      		breq .L230
 2090 0cb2 8EE3      		ldi r24,lo8(62)
 2091 0cb4 81A3      		std Z+33,r24
 2092 0cb6 80E0      		ldi r24,lo8(0)
 2093               	.L225:
 2094               	/* #APP */
 2095               	 ;  518 "c:/lab2/source/os_task.c" 1
 2096 0cb8 7894      		sei
 2097               	 ;  0 "" 2
 2098               	/* #NOAPP */
 2099 0cba 0895      		ret
 2100               	.L228:
 2101 0cbc 8AE2      		ldi r24,lo8(42)
 2102 0cbe 0895      		ret
 2103               	.L227:
 2104 0cc0 8DE3      		ldi r24,lo8(61)
 2105 0cc2 0895      		ret
 2106               	.L229:
 2107               	/* #APP */
 2108               	 ;  505 "c:/lab2/source/os_task.c" 1
 2109 0cc4 F894      		cli
GAS LISTING C:\Users\user\AppData\Local\Temp/ccHVvlcI.s 			page 38


 2110               	 ;  0 "" 2
 2111               	/* #NOAPP */
 2112 0cc6 E091 0000 		lds r30,OSTCBCur
 2113 0cca F091 0000 		lds r31,(OSTCBCur)+1
 2114 0cce 81A1      		ldd r24,Z+33
 2115               	/* #APP */
 2116               	 ;  507 "c:/lab2/source/os_task.c" 1
 2117 0cd0 7894      		sei
 2118               	 ;  0 "" 2
 2119               	/* #NOAPP */
 2120 0cd2 0895      		ret
 2121               	.L230:
 2122 0cd4 8BE0      		ldi r24,lo8(11)
 2123 0cd6 00C0      		rjmp .L225
 2124               		.size	OSTaskDelReq, .-OSTaskDelReq
 2125               	.global	OSTaskStkChk
 2126               		.type	OSTaskStkChk, @function
 2127               	OSTaskStkChk:
 2128 0cd8 EF92      		push r14
 2129 0cda FF92      		push r15
 2130 0cdc 0F93      		push r16
 2131 0cde 1F93      		push r17
 2132 0ce0 CF93      		push r28
 2133 0ce2 DF93      		push r29
 2134               	/* prologue: function */
 2135               	/* frame size = 0 */
 2136 0ce4 E82F      		mov r30,r24
 2137 0ce6 EB01      		movw r28,r22
 2138 0ce8 8D50      		subi r24,lo8(-(-13))
 2139 0cea 823F      		cpi r24,lo8(-14)
 2140 0cec 00F0      		brlo .L242
 2141 0cee 1882      		st Y,__zero_reg__
 2142 0cf0 1982      		std Y+1,__zero_reg__
 2143 0cf2 1A82      		std Y+2,__zero_reg__
 2144 0cf4 1B82      		std Y+3,__zero_reg__
 2145 0cf6 1C82      		std Y+4,__zero_reg__
 2146 0cf8 1D82      		std Y+5,__zero_reg__
 2147 0cfa 1E82      		std Y+6,__zero_reg__
 2148 0cfc 1F82      		std Y+7,__zero_reg__
 2149               	/* #APP */
 2150               	 ;  614 "c:/lab2/source/os_task.c" 1
 2151 0cfe F894      		cli
 2152               	 ;  0 "" 2
 2153               	/* #NOAPP */
 2154 0d00 EF3F      		cpi r30,lo8(-1)
 2155 0d02 01F0      		breq .L243
 2156               	.L234:
 2157 0d04 F0E0      		ldi r31,lo8(0)
 2158 0d06 EE0F      		lsl r30
 2159 0d08 FF1F      		rol r31
 2160 0d0a E050      		subi r30,lo8(-(OSTCBPrioTbl))
 2161 0d0c F040      		sbci r31,hi8(-(OSTCBPrioTbl))
 2162 0d0e 0190      		ld __tmp_reg__,Z+
 2163 0d10 F081      		ld r31,Z
 2164 0d12 E02D      		mov r30,__tmp_reg__
 2165 0d14 3097      		sbiw r30,0
 2166 0d16 01F0      		breq .L244
GAS LISTING C:\Users\user\AppData\Local\Temp/ccHVvlcI.s 			page 39


 2167 0d18 8285      		ldd r24,Z+10
 2168 0d1a 80FD      		sbrc r24,0
 2169 0d1c 00C0      		rjmp .L236
 2170               	/* #APP */
 2171               	 ;  624 "c:/lab2/source/os_task.c" 1
 2172 0d1e 7894      		sei
 2173               	 ;  0 "" 2
 2174               	/* #NOAPP */
 2175 0d20 82E8      		ldi r24,lo8(-126)
 2176               	/* epilogue start */
 2177 0d22 DF91      		pop r29
 2178 0d24 CF91      		pop r28
 2179 0d26 1F91      		pop r17
 2180 0d28 0F91      		pop r16
 2181 0d2a FF90      		pop r15
 2182 0d2c EF90      		pop r14
 2183 0d2e 0895      		ret
 2184               	.L242:
 2185 0d30 8AE2      		ldi r24,lo8(42)
 2186 0d32 DF91      		pop r29
 2187 0d34 CF91      		pop r28
 2188 0d36 1F91      		pop r17
 2189 0d38 0F91      		pop r16
 2190 0d3a FF90      		pop r15
 2191 0d3c EF90      		pop r14
 2192 0d3e 0895      		ret
 2193               	.L243:
 2194 0d40 E091 0000 		lds r30,OSTCBCur
 2195 0d44 F091 0000 		lds r31,(OSTCBCur)+1
 2196 0d48 E48D      		ldd r30,Z+28
 2197 0d4a 00C0      		rjmp .L234
 2198               	.L244:
 2199               	/* #APP */
 2200               	 ;  620 "c:/lab2/source/os_task.c" 1
 2201 0d4c 7894      		sei
 2202               	 ;  0 "" 2
 2203               	/* #NOAPP */
 2204 0d4e 8BE0      		ldi r24,lo8(11)
 2205 0d50 DF91      		pop r29
 2206 0d52 CF91      		pop r28
 2207 0d54 1F91      		pop r17
 2208 0d56 0F91      		pop r16
 2209 0d58 FF90      		pop r15
 2210 0d5a EF90      		pop r14
 2211 0d5c 0895      		ret
 2212               	.L236:
 2213 0d5e E680      		ldd r14,Z+6
 2214 0d60 F780      		ldd r15,Z+7
 2215 0d62 0085      		ldd r16,Z+8
 2216 0d64 1185      		ldd r17,Z+9
 2217 0d66 A481      		ldd r26,Z+4
 2218 0d68 B581      		ldd r27,Z+5
 2219               	/* #APP */
 2220               	 ;  630 "c:/lab2/source/os_task.c" 1
 2221 0d6a 7894      		sei
 2222               	 ;  0 "" 2
 2223               	/* #NOAPP */
GAS LISTING C:\Users\user\AppData\Local\Temp/ccHVvlcI.s 			page 40


 2224 0d6c 8C91      		ld r24,X
 2225 0d6e 8823      		tst r24
 2226 0d70 01F4      		brne .L245
 2227 0d72 20E0      		ldi r18,lo8(0)
 2228 0d74 30E0      		ldi r19,hi8(0)
 2229 0d76 40E0      		ldi r20,hlo8(0)
 2230 0d78 50E0      		ldi r21,hhi8(0)
 2231               	.L239:
 2232 0d7a 2F5F      		subi r18,lo8(-(1))
 2233 0d7c 3F4F      		sbci r19,hi8(-(1))
 2234 0d7e 4F4F      		sbci r20,hlo8(-(1))
 2235 0d80 5F4F      		sbci r21,hhi8(-(1))
 2236 0d82 FD01      		movw r30,r26
 2237 0d84 E20F      		add r30,r18
 2238 0d86 F31F      		adc r31,r19
 2239 0d88 8081      		ld r24,Z
 2240 0d8a 8823      		tst r24
 2241 0d8c 01F0      		breq .L239
 2242               	.L238:
 2243 0d8e 2883      		st Y,r18
 2244 0d90 3983      		std Y+1,r19
 2245 0d92 4A83      		std Y+2,r20
 2246 0d94 5B83      		std Y+3,r21
 2247 0d96 E21A      		sub r14,r18
 2248 0d98 F30A      		sbc r15,r19
 2249 0d9a 040B      		sbc r16,r20
 2250 0d9c 150B      		sbc r17,r21
 2251 0d9e EC82      		std Y+4,r14
 2252 0da0 FD82      		std Y+5,r15
 2253 0da2 0E83      		std Y+6,r16
 2254 0da4 1F83      		std Y+7,r17
 2255 0da6 80E0      		ldi r24,lo8(0)
 2256 0da8 DF91      		pop r29
 2257 0daa CF91      		pop r28
 2258 0dac 1F91      		pop r17
 2259 0dae 0F91      		pop r16
 2260 0db0 FF90      		pop r15
 2261 0db2 EF90      		pop r14
 2262 0db4 0895      		ret
 2263               	.L245:
 2264 0db6 20E0      		ldi r18,lo8(0)
 2265 0db8 30E0      		ldi r19,hi8(0)
 2266 0dba 40E0      		ldi r20,hlo8(0)
 2267 0dbc 50E0      		ldi r21,hhi8(0)
 2268 0dbe 00C0      		rjmp .L238
 2269               		.size	OSTaskStkChk, .-OSTaskStkChk
 2270               	.global	OSTimeGet
 2271               		.type	OSTimeGet, @function
 2272               	OSTimeGet:
 2273               	/* prologue: function */
 2274               	/* frame size = 0 */
 2275               	/* #APP */
 2276               	 ;  195 "c:/lab2/source/os_time.c" 1
 2277 0dc0 F894      		cli
 2278               	 ;  0 "" 2
 2279               	/* #NOAPP */
 2280 0dc2 2091 0000 		lds r18,OSTime
GAS LISTING C:\Users\user\AppData\Local\Temp/ccHVvlcI.s 			page 41


 2281 0dc6 3091 0000 		lds r19,(OSTime)+1
 2282 0dca 4091 0000 		lds r20,(OSTime)+2
 2283 0dce 5091 0000 		lds r21,(OSTime)+3
 2284               	/* #APP */
 2285               	 ;  197 "c:/lab2/source/os_time.c" 1
 2286 0dd2 7894      		sei
 2287               	 ;  0 "" 2
 2288               	/* #NOAPP */
 2289 0dd4 B901      		movw r22,r18
 2290 0dd6 CA01      		movw r24,r20
 2291               	/* epilogue start */
 2292 0dd8 0895      		ret
 2293               		.size	OSTimeGet, .-OSTimeGet
 2294               	.global	OSTimeSet
 2295               		.type	OSTimeSet, @function
 2296               	OSTimeSet:
 2297               	/* prologue: function */
 2298               	/* frame size = 0 */
 2299               	/* #APP */
 2300               	 ;  222 "c:/lab2/source/os_time.c" 1
 2301 0dda F894      		cli
 2302               	 ;  0 "" 2
 2303               	/* #NOAPP */
 2304 0ddc 6093 0000 		sts OSTime,r22
 2305 0de0 7093 0000 		sts (OSTime)+1,r23
 2306 0de4 8093 0000 		sts (OSTime)+2,r24
 2307 0de8 9093 0000 		sts (OSTime)+3,r25
 2308               	/* #APP */
 2309               	 ;  224 "c:/lab2/source/os_time.c" 1
 2310 0dec 7894      		sei
 2311               	 ;  0 "" 2
 2312               	/* epilogue start */
 2313               	/* #NOAPP */
 2314 0dee 0895      		ret
 2315               		.size	OSTimeSet, .-OSTimeSet
 2316               	.global	OSTaskQuery
 2317               		.type	OSTaskQuery, @function
 2318               	OSTaskQuery:
 2319               	/* prologue: function */
 2320               	/* frame size = 0 */
 2321 0df0 E82F      		mov r30,r24
 2322 0df2 8D50      		subi r24,lo8(-(-13))
 2323 0df4 823F      		cpi r24,lo8(-14)
 2324 0df6 00F0      		brlo .L258
 2325               	/* #APP */
 2326               	 ;  741 "c:/lab2/source/os_task.c" 1
 2327 0df8 F894      		cli
 2328               	 ;  0 "" 2
 2329               	/* #NOAPP */
 2330 0dfa EF3F      		cpi r30,lo8(-1)
 2331 0dfc 01F0      		breq .L259
 2332               	.L253:
 2333 0dfe F0E0      		ldi r31,lo8(0)
 2334 0e00 EE0F      		lsl r30
 2335 0e02 FF1F      		rol r31
 2336 0e04 E050      		subi r30,lo8(-(OSTCBPrioTbl))
 2337 0e06 F040      		sbci r31,hi8(-(OSTCBPrioTbl))
GAS LISTING C:\Users\user\AppData\Local\Temp/ccHVvlcI.s 			page 42


 2338 0e08 0190      		ld __tmp_reg__,Z+
 2339 0e0a F081      		ld r31,Z
 2340 0e0c E02D      		mov r30,__tmp_reg__
 2341 0e0e 3097      		sbiw r30,0
 2342 0e10 01F0      		breq .L260
 2343 0e12 DB01      		movw r26,r22
 2344 0e14 82E2      		ldi r24,lo8(34)
 2345               	.L255:
 2346 0e16 0190      		ld r0,Z+
 2347 0e18 0D92      		st X+,r0
 2348 0e1a 8150      		subi r24,lo8(-(-1))
 2349 0e1c 01F4      		brne .L255
 2350               	/* #APP */
 2351               	 ;  751 "c:/lab2/source/os_task.c" 1
 2352 0e1e 7894      		sei
 2353               	 ;  0 "" 2
 2354               	/* #NOAPP */
 2355 0e20 0895      		ret
 2356               	.L260:
 2357               	/* #APP */
 2358               	 ;  747 "c:/lab2/source/os_task.c" 1
 2359 0e22 7894      		sei
 2360               	 ;  0 "" 2
 2361               	/* #NOAPP */
 2362 0e24 89E2      		ldi r24,lo8(41)
 2363 0e26 0895      		ret
 2364               	.L258:
 2365 0e28 8AE2      		ldi r24,lo8(42)
 2366 0e2a 0895      		ret
 2367               	.L259:
 2368 0e2c E091 0000 		lds r30,OSTCBCur
 2369 0e30 F091 0000 		lds r31,(OSTCBCur)+1
 2370 0e34 E48D      		ldd r30,Z+28
 2371 0e36 00C0      		rjmp .L253
 2372               		.size	OSTaskQuery, .-OSTaskQuery
 2373               	.global	OS_TCBInit
 2374               		.type	OS_TCBInit, @function
 2375               	OS_TCBInit:
 2376 0e38 9F92      		push r9
 2377 0e3a AF92      		push r10
 2378 0e3c BF92      		push r11
 2379 0e3e CF92      		push r12
 2380 0e40 DF92      		push r13
 2381 0e42 EF92      		push r14
 2382 0e44 FF92      		push r15
 2383 0e46 0F93      		push r16
 2384 0e48 1F93      		push r17
 2385 0e4a CF93      		push r28
 2386 0e4c DF93      		push r29
 2387               	/* prologue: function */
 2388               	/* frame size = 0 */
 2389 0e4e 982E      		mov r9,r24
 2390               	/* #APP */
 2391               	 ;  1043 "c:/lab2/source/os_core.c" 1
 2392 0e50 F894      		cli
 2393               	 ;  0 "" 2
 2394               	/* #NOAPP */
GAS LISTING C:\Users\user\AppData\Local\Temp/ccHVvlcI.s 			page 43


 2395 0e52 C091 0000 		lds r28,OSTCBFreeList
 2396 0e56 D091 0000 		lds r29,(OSTCBFreeList)+1
 2397 0e5a 2097      		sbiw r28,0
 2398 0e5c 01F4      		brne .+2
 2399 0e5e 00C0      		rjmp .L262
 2400 0e60 8E85      		ldd r24,Y+14
 2401 0e62 9F85      		ldd r25,Y+15
 2402 0e64 9093 0000 		sts (OSTCBFreeList)+1,r25
 2403 0e68 8093 0000 		sts OSTCBFreeList,r24
 2404               	/* #APP */
 2405               	 ;  1047 "c:/lab2/source/os_core.c" 1
 2406 0e6c 7894      		sei
 2407               	 ;  0 "" 2
 2408               	/* #NOAPP */
 2409 0e6e 7983      		std Y+1,r23
 2410 0e70 6883      		st Y,r22
 2411 0e72 9C8E      		std Y+28,r9
 2412 0e74 1B8E      		std Y+27,__zero_reg__
 2413 0e76 1A8E      		std Y+26,__zero_reg__
 2414 0e78 198E      		std Y+25,__zero_reg__
 2415 0e7a DB82      		std Y+3,r13
 2416 0e7c CA82      		std Y+2,r12
 2417 0e7e EE82      		std Y+6,r14
 2418 0e80 FF82      		std Y+7,r15
 2419 0e82 0887      		std Y+8,r16
 2420 0e84 1987      		std Y+9,r17
 2421 0e86 5D83      		std Y+5,r21
 2422 0e88 4C83      		std Y+4,r20
 2423 0e8a BB86      		std Y+11,r11
 2424 0e8c AA86      		std Y+10,r10
 2425 0e8e 3D87      		std Y+13,r19
 2426 0e90 2C87      		std Y+12,r18
 2427 0e92 19A2      		std Y+33,__zero_reg__
 2428 0e94 E92D      		mov r30,r9
 2429 0e96 E695      		lsr r30
 2430 0e98 E695      		lsr r30
 2431 0e9a E695      		lsr r30
 2432 0e9c EE8F      		std Y+30,r30
 2433 0e9e F0E0      		ldi r31,lo8(0)
 2434 0ea0 E050      		subi r30,lo8(-(OSMapTbl))
 2435 0ea2 F040      		sbci r31,hi8(-(OSMapTbl))
 2436 0ea4 8081      		ld r24,Z
 2437 0ea6 88A3      		std Y+32,r24
 2438 0ea8 E92D      		mov r30,r9
 2439 0eaa E770      		andi r30,lo8(7)
 2440 0eac ED8F      		std Y+29,r30
 2441 0eae F0E0      		ldi r31,lo8(0)
 2442 0eb0 E050      		subi r30,lo8(-(OSMapTbl))
 2443 0eb2 F040      		sbci r31,hi8(-(OSMapTbl))
 2444 0eb4 8081      		ld r24,Z
 2445 0eb6 8F8F      		std Y+31,r24
 2446 0eb8 1B8A      		std Y+19,__zero_reg__
 2447 0eba 1A8A      		std Y+18,__zero_reg__
 2448 0ebc 1F8A      		std Y+23,__zero_reg__
 2449 0ebe 1E8A      		std Y+22,__zero_reg__
 2450 0ec0 1D8A      		std Y+21,__zero_reg__
 2451 0ec2 1C8A      		std Y+20,__zero_reg__
GAS LISTING C:\Users\user\AppData\Local\Temp/ccHVvlcI.s 			page 44


 2452 0ec4 CE01      		movw r24,r28
 2453 0ec6 0E94 0000 		call OSTCBInitHook
 2454 0eca CE01      		movw r24,r28
 2455 0ecc 0E94 0000 		call OSTaskCreateHook
 2456               	/* #APP */
 2457               	 ;  1094 "c:/lab2/source/os_core.c" 1
 2458 0ed0 F894      		cli
 2459               	 ;  0 "" 2
 2460               	/* #NOAPP */
 2461 0ed2 E92D      		mov r30,r9
 2462 0ed4 F0E0      		ldi r31,lo8(0)
 2463 0ed6 EE0F      		lsl r30
 2464 0ed8 FF1F      		rol r31
 2465 0eda E050      		subi r30,lo8(-(OSTCBPrioTbl))
 2466 0edc F040      		sbci r31,hi8(-(OSTCBPrioTbl))
 2467 0ede D183      		std Z+1,r29
 2468 0ee0 C083      		st Z,r28
 2469 0ee2 E091 0000 		lds r30,OSTCBList
 2470 0ee6 F091 0000 		lds r31,(OSTCBList)+1
 2471 0eea FF87      		std Y+15,r31
 2472 0eec EE87      		std Y+14,r30
 2473 0eee 198A      		std Y+17,__zero_reg__
 2474 0ef0 188A      		std Y+16,__zero_reg__
 2475 0ef2 3097      		sbiw r30,0
 2476 0ef4 01F0      		breq .L263
 2477 0ef6 D18B      		std Z+17,r29
 2478 0ef8 C08B      		std Z+16,r28
 2479               	.L263:
 2480 0efa D093 0000 		sts (OSTCBList)+1,r29
 2481 0efe C093 0000 		sts OSTCBList,r28
 2482 0f02 8091 0000 		lds r24,OSRdyGrp
 2483 0f06 98A1      		ldd r25,Y+32
 2484 0f08 892B      		or r24,r25
 2485 0f0a 8093 0000 		sts OSRdyGrp,r24
 2486 0f0e EE8D      		ldd r30,Y+30
 2487 0f10 F0E0      		ldi r31,lo8(0)
 2488 0f12 E050      		subi r30,lo8(-(OSRdyTbl))
 2489 0f14 F040      		sbci r31,hi8(-(OSRdyTbl))
 2490 0f16 8081      		ld r24,Z
 2491 0f18 9F8D      		ldd r25,Y+31
 2492 0f1a 892B      		or r24,r25
 2493 0f1c 8083      		st Z,r24
 2494               	/* #APP */
 2495               	 ;  1104 "c:/lab2/source/os_core.c" 1
 2496 0f1e 7894      		sei
 2497               	 ;  0 "" 2
 2498               	/* #NOAPP */
 2499 0f20 80E0      		ldi r24,lo8(0)
 2500               	.L264:
 2501               	/* epilogue start */
 2502 0f22 DF91      		pop r29
 2503 0f24 CF91      		pop r28
 2504 0f26 1F91      		pop r17
 2505 0f28 0F91      		pop r16
 2506 0f2a FF90      		pop r15
 2507 0f2c EF90      		pop r14
 2508 0f2e DF90      		pop r13
GAS LISTING C:\Users\user\AppData\Local\Temp/ccHVvlcI.s 			page 45


 2509 0f30 CF90      		pop r12
 2510 0f32 BF90      		pop r11
 2511 0f34 AF90      		pop r10
 2512 0f36 9F90      		pop r9
 2513 0f38 0895      		ret
 2514               	.L262:
 2515               	/* #APP */
 2516               	 ;  1107 "c:/lab2/source/os_core.c" 1
 2517 0f3a 7894      		sei
 2518               	 ;  0 "" 2
 2519               	/* #NOAPP */
 2520 0f3c 86E4      		ldi r24,lo8(70)
 2521 0f3e 00C0      		rjmp .L264
 2522               		.size	OS_TCBInit, .-OS_TCBInit
 2523               	.global	OS_TaskIdle
 2524               		.type	OS_TaskIdle, @function
 2525               	OS_TaskIdle:
 2526               	/* prologue: function */
 2527               	/* frame size = 0 */
 2528               	.L267:
 2529               	/* #APP */
 2530               	 ;  920 "c:/lab2/source/os_core.c" 1
 2531 0f40 F894      		cli
 2532               	 ;  0 "" 2
 2533               	/* #NOAPP */
 2534 0f42 8091 0000 		lds r24,OSIdleCtr
 2535 0f46 9091 0000 		lds r25,(OSIdleCtr)+1
 2536 0f4a A091 0000 		lds r26,(OSIdleCtr)+2
 2537 0f4e B091 0000 		lds r27,(OSIdleCtr)+3
 2538 0f52 0196      		adiw r24,1
 2539 0f54 A11D      		adc r26,__zero_reg__
 2540 0f56 B11D      		adc r27,__zero_reg__
 2541 0f58 8093 0000 		sts OSIdleCtr,r24
 2542 0f5c 9093 0000 		sts (OSIdleCtr)+1,r25
 2543 0f60 A093 0000 		sts (OSIdleCtr)+2,r26
 2544 0f64 B093 0000 		sts (OSIdleCtr)+3,r27
 2545               	/* #APP */
 2546               	 ;  922 "c:/lab2/source/os_core.c" 1
 2547 0f68 7894      		sei
 2548               	 ;  0 "" 2
 2549               	/* #NOAPP */
 2550 0f6a 0E94 0000 		call OSTaskIdleHook
 2551 0f6e 00C0      		rjmp .L267
 2552               		.size	OS_TaskIdle, .-OS_TaskIdle
 2553               	.global	OS_Sched
 2554               		.type	OS_Sched, @function
 2555               	OS_Sched:
 2556               	/* prologue: function */
 2557               	/* frame size = 0 */
 2558               	/* #APP */
 2559               	 ;  877 "c:/lab2/source/os_core.c" 1
 2560 0f70 F894      		cli
 2561               	 ;  0 "" 2
 2562               	/* #NOAPP */
 2563 0f72 8091 0000 		lds r24,OSIntNesting
 2564 0f76 8823      		tst r24
 2565 0f78 01F0      		breq .+2
GAS LISTING C:\Users\user\AppData\Local\Temp/ccHVvlcI.s 			page 46


 2566 0f7a 00C0      		rjmp .L270
 2567 0f7c 8091 0000 		lds r24,OSLockNesting
 2568 0f80 8823      		tst r24
 2569 0f82 01F4      		brne .L270
 2570 0f84 E091 0000 		lds r30,OSRdyGrp
 2571 0f88 F0E0      		ldi r31,lo8(0)
 2572 0f8a E050      		subi r30,lo8(-(OSUnMapTbl))
 2573 0f8c F040      		sbci r31,hi8(-(OSUnMapTbl))
 2574 0f8e 8081      		ld r24,Z
 2575 0f90 E82F      		mov r30,r24
 2576 0f92 F0E0      		ldi r31,lo8(0)
 2577 0f94 E050      		subi r30,lo8(-(OSRdyTbl))
 2578 0f96 F040      		sbci r31,hi8(-(OSRdyTbl))
 2579 0f98 E081      		ld r30,Z
 2580 0f9a F0E0      		ldi r31,lo8(0)
 2581 0f9c E050      		subi r30,lo8(-(OSUnMapTbl))
 2582 0f9e F040      		sbci r31,hi8(-(OSUnMapTbl))
 2583 0fa0 982F      		mov r25,r24
 2584 0fa2 990F      		lsl r25
 2585 0fa4 990F      		lsl r25
 2586 0fa6 990F      		lsl r25
 2587 0fa8 8081      		ld r24,Z
 2588 0faa 980F      		add r25,r24
 2589 0fac 9093 0000 		sts OSPrioHighRdy,r25
 2590 0fb0 8091 0000 		lds r24,OSPrioCur
 2591 0fb4 9817      		cp r25,r24
 2592 0fb6 01F0      		breq .L270
 2593 0fb8 E92F      		mov r30,r25
 2594 0fba F0E0      		ldi r31,lo8(0)
 2595 0fbc EE0F      		lsl r30
 2596 0fbe FF1F      		rol r31
 2597 0fc0 E050      		subi r30,lo8(-(OSTCBPrioTbl))
 2598 0fc2 F040      		sbci r31,hi8(-(OSTCBPrioTbl))
 2599 0fc4 8081      		ld r24,Z
 2600 0fc6 9181      		ldd r25,Z+1
 2601 0fc8 9093 0000 		sts (OSTCBHighRdy)+1,r25
 2602 0fcc 8093 0000 		sts OSTCBHighRdy,r24
 2603 0fd0 8091 0000 		lds r24,OSCtxSwCtr
 2604 0fd4 9091 0000 		lds r25,(OSCtxSwCtr)+1
 2605 0fd8 A091 0000 		lds r26,(OSCtxSwCtr)+2
 2606 0fdc B091 0000 		lds r27,(OSCtxSwCtr)+3
 2607 0fe0 0196      		adiw r24,1
 2608 0fe2 A11D      		adc r26,__zero_reg__
 2609 0fe4 B11D      		adc r27,__zero_reg__
 2610 0fe6 8093 0000 		sts OSCtxSwCtr,r24
 2611 0fea 9093 0000 		sts (OSCtxSwCtr)+1,r25
 2612 0fee A093 0000 		sts (OSCtxSwCtr)+2,r26
 2613 0ff2 B093 0000 		sts (OSCtxSwCtr)+3,r27
 2614 0ff6 0E94 0000 		call OSCtxSw
 2615               	.L270:
 2616               	/* #APP */
 2617               	 ;  887 "c:/lab2/source/os_core.c" 1
 2618 0ffa 7894      		sei
 2619               	 ;  0 "" 2
 2620               	/* epilogue start */
 2621               	/* #NOAPP */
 2622 0ffc 0895      		ret
GAS LISTING C:\Users\user\AppData\Local\Temp/ccHVvlcI.s 			page 47


 2623               		.size	OS_Sched, .-OS_Sched
 2624               	.global	OSTimeDlyResume
 2625               		.type	OSTimeDlyResume, @function
 2626               	OSTimeDlyResume:
 2627               	/* prologue: function */
 2628               	/* frame size = 0 */
 2629 0ffe 8C30      		cpi r24,lo8(12)
 2630 1000 00F4      		brsh .L279
 2631               	/* #APP */
 2632               	 ;  149 "c:/lab2/source/os_time.c" 1
 2633 1002 F894      		cli
 2634               	 ;  0 "" 2
 2635               	/* #NOAPP */
 2636 1004 E82F      		mov r30,r24
 2637 1006 F0E0      		ldi r31,lo8(0)
 2638 1008 EE0F      		lsl r30
 2639 100a FF1F      		rol r31
 2640 100c E050      		subi r30,lo8(-(OSTCBPrioTbl))
 2641 100e F040      		sbci r31,hi8(-(OSTCBPrioTbl))
 2642 1010 A081      		ld r26,Z
 2643 1012 B181      		ldd r27,Z+1
 2644 1014 1097      		sbiw r26,0
 2645 1016 01F0      		breq .L275
 2646 1018 5996      		adiw r26,25
 2647 101a 8D91      		ld r24,X+
 2648 101c 9C91      		ld r25,X
 2649 101e 5A97      		sbiw r26,25+1
 2650 1020 892B      		or r24,r25
 2651 1022 01F4      		brne .L280
 2652               	/* #APP */
 2653               	 ;  164 "c:/lab2/source/os_time.c" 1
 2654 1024 7894      		sei
 2655               	 ;  0 "" 2
 2656               	/* #NOAPP */
 2657 1026 80E5      		ldi r24,lo8(80)
 2658 1028 0895      		ret
 2659               	.L279:
 2660 102a 8AE2      		ldi r24,lo8(42)
 2661 102c 0895      		ret
 2662               	.L275:
 2663               	/* #APP */
 2664               	 ;  168 "c:/lab2/source/os_time.c" 1
 2665 102e 7894      		sei
 2666               	 ;  0 "" 2
 2667               	/* #NOAPP */
 2668 1030 8BE0      		ldi r24,lo8(11)
 2669 1032 0895      		ret
 2670               	.L280:
 2671 1034 5A96      		adiw r26,25+1
 2672 1036 1C92      		st X,__zero_reg__
 2673 1038 1E92      		st -X,__zero_reg__
 2674 103a 5997      		sbiw r26,25
 2675 103c 5B96      		adiw r26,27
 2676 103e 8C91      		ld r24,X
 2677 1040 5B97      		sbiw r26,27
 2678 1042 83FF      		sbrs r24,3
 2679 1044 00C0      		rjmp .L281
GAS LISTING C:\Users\user\AppData\Local\Temp/ccHVvlcI.s 			page 48


 2680               	/* #APP */
 2681               	 ;  160 "c:/lab2/source/os_time.c" 1
 2682 1046 7894      		sei
 2683               	 ;  0 "" 2
 2684               	/* #NOAPP */
 2685 1048 80E0      		ldi r24,lo8(0)
 2686 104a 0895      		ret
 2687               	.L281:
 2688 104c 8091 0000 		lds r24,OSRdyGrp
 2689 1050 9096      		adiw r26,32
 2690 1052 9C91      		ld r25,X
 2691 1054 9097      		sbiw r26,32
 2692 1056 892B      		or r24,r25
 2693 1058 8093 0000 		sts OSRdyGrp,r24
 2694 105c 5E96      		adiw r26,30
 2695 105e EC91      		ld r30,X
 2696 1060 5E97      		sbiw r26,30
 2697 1062 F0E0      		ldi r31,lo8(0)
 2698 1064 E050      		subi r30,lo8(-(OSRdyTbl))
 2699 1066 F040      		sbci r31,hi8(-(OSRdyTbl))
 2700 1068 8081      		ld r24,Z
 2701 106a 5F96      		adiw r26,31
 2702 106c 9C91      		ld r25,X
 2703 106e 892B      		or r24,r25
 2704 1070 8083      		st Z,r24
 2705               	/* #APP */
 2706               	 ;  157 "c:/lab2/source/os_time.c" 1
 2707 1072 7894      		sei
 2708               	 ;  0 "" 2
 2709               	/* #NOAPP */
 2710 1074 0E94 0000 		call OS_Sched
 2711 1078 80E0      		ldi r24,lo8(0)
 2712 107a 0895      		ret
 2713               		.size	OSTimeDlyResume, .-OSTimeDlyResume
 2714               	.global	OSTimeDly
 2715               		.type	OSTimeDly, @function
 2716               	OSTimeDly:
 2717               	/* prologue: function */
 2718               	/* frame size = 0 */
 2719 107c 9C01      		movw r18,r24
 2720 107e 0097      		sbiw r24,0
 2721 1080 01F0      		breq .L285
 2722               	/* #APP */
 2723               	 ;  43 "c:/lab2/source/os_time.c" 1
 2724 1082 F894      		cli
 2725               	 ;  0 "" 2
 2726               	/* #NOAPP */
 2727 1084 A091 0000 		lds r26,OSTCBCur
 2728 1088 B091 0000 		lds r27,(OSTCBCur)+1
 2729 108c 5E96      		adiw r26,30
 2730 108e EC91      		ld r30,X
 2731 1090 5E97      		sbiw r26,30
 2732 1092 F0E0      		ldi r31,lo8(0)
 2733 1094 E050      		subi r30,lo8(-(OSRdyTbl))
 2734 1096 F040      		sbci r31,hi8(-(OSRdyTbl))
 2735 1098 5F96      		adiw r26,31
 2736 109a 8C91      		ld r24,X
GAS LISTING C:\Users\user\AppData\Local\Temp/ccHVvlcI.s 			page 49


 2737 109c 5F97      		sbiw r26,31
 2738 109e 8095      		com r24
 2739 10a0 9081      		ld r25,Z
 2740 10a2 8923      		and r24,r25
 2741 10a4 8083      		st Z,r24
 2742 10a6 8823      		tst r24
 2743 10a8 01F4      		brne .L284
 2744 10aa 9096      		adiw r26,32
 2745 10ac 9C91      		ld r25,X
 2746 10ae 9097      		sbiw r26,32
 2747 10b0 9095      		com r25
 2748 10b2 8091 0000 		lds r24,OSRdyGrp
 2749 10b6 8923      		and r24,r25
 2750 10b8 8093 0000 		sts OSRdyGrp,r24
 2751               	.L284:
 2752 10bc 5A96      		adiw r26,25+1
 2753 10be 3C93      		st X,r19
 2754 10c0 2E93      		st -X,r18
 2755 10c2 5997      		sbiw r26,25
 2756               	/* #APP */
 2757               	 ;  48 "c:/lab2/source/os_time.c" 1
 2758 10c4 7894      		sei
 2759               	 ;  0 "" 2
 2760               	/* #NOAPP */
 2761 10c6 0E94 0000 		call OS_Sched
 2762               	.L285:
 2763 10ca 0895      		ret
 2764               		.size	OSTimeDly, .-OSTimeDly
 2765               	.global	OSTimeDlyHMSM
 2766               		.type	OSTimeDlyHMSM, @function
 2767               	OSTimeDlyHMSM:
 2768 10cc 8F92      		push r8
 2769 10ce 9F92      		push r9
 2770 10d0 AF92      		push r10
 2771 10d2 BF92      		push r11
 2772 10d4 CF92      		push r12
 2773 10d6 DF92      		push r13
 2774 10d8 EF92      		push r14
 2775 10da FF92      		push r15
 2776 10dc 0F93      		push r16
 2777 10de 1F93      		push r17
 2778 10e0 CF93      		push r28
 2779 10e2 DF93      		push r29
 2780               	/* prologue: function */
 2781               	/* frame size = 0 */
 2782 10e4 882E      		mov r8,r24
 2783 10e6 162F      		mov r17,r22
 2784 10e8 942E      		mov r9,r20
 2785 10ea 8823      		tst r24
 2786 10ec 01F0      		breq .L297
 2787               	.L287:
 2788 10ee 1C33      		cpi r17,lo8(60)
 2789 10f0 00F4      		brsh .L298
 2790               	.L288:
 2791 10f2 8BE3      		ldi r24,lo8(59)
 2792 10f4 8915      		cp r24,r9
 2793 10f6 00F0      		brlo .L299
GAS LISTING C:\Users\user\AppData\Local\Temp/ccHVvlcI.s 			page 50


 2794               	.L289:
 2795 10f8 93E0      		ldi r25,hi8(1000)
 2796 10fa 283E      		cpi r18,lo8(1000)
 2797 10fc 3907      		cpc r19,r25
 2798 10fe 00F0      		brlo .L291
 2799 1100 83E5      		ldi r24,lo8(83)
 2800               	.L290:
 2801               	/* epilogue start */
 2802 1102 DF91      		pop r29
 2803 1104 CF91      		pop r28
 2804 1106 1F91      		pop r17
 2805 1108 0F91      		pop r16
 2806 110a FF90      		pop r15
 2807 110c EF90      		pop r14
 2808 110e DF90      		pop r13
 2809 1110 CF90      		pop r12
 2810 1112 BF90      		pop r11
 2811 1114 AF90      		pop r10
 2812 1116 9F90      		pop r9
 2813 1118 8F90      		pop r8
 2814 111a 0895      		ret
 2815               	.L299:
 2816 111c 82E5      		ldi r24,lo8(82)
 2817 111e 00C0      		rjmp .L290
 2818               	.L297:
 2819 1120 6623      		tst r22
 2820 1122 01F4      		brne .L287
 2821 1124 4423      		tst r20
 2822 1126 01F4      		brne .L288
 2823 1128 2115      		cp r18,__zero_reg__
 2824 112a 3105      		cpc r19,__zero_reg__
 2825 112c 01F4      		brne .L289
 2826 112e 84E5      		ldi r24,lo8(84)
 2827 1130 00C0      		rjmp .L290
 2828               	.L298:
 2829 1132 81E5      		ldi r24,lo8(81)
 2830 1134 00C0      		rjmp .L290
 2831               	.L291:
 2832 1136 B901      		movw r22,r18
 2833 1138 80E0      		ldi r24,lo8(0)
 2834 113a 90E0      		ldi r25,hi8(0)
 2835 113c 24E6      		ldi r18,lo8(100)
 2836 113e 30E0      		ldi r19,hi8(100)
 2837 1140 40E0      		ldi r20,hlo8(100)
 2838 1142 50E0      		ldi r21,hhi8(100)
 2839 1144 0E94 0000 		call __mulsi3
 2840 1148 6C50      		subi r22,lo8(-(500))
 2841 114a 7E4F      		sbci r23,hi8(-(500))
 2842 114c 8F4F      		sbci r24,hlo8(-(500))
 2843 114e 9F4F      		sbci r25,hhi8(-(500))
 2844 1150 28EE      		ldi r18,lo8(1000)
 2845 1152 33E0      		ldi r19,hi8(1000)
 2846 1154 40E0      		ldi r20,hlo8(1000)
 2847 1156 50E0      		ldi r21,hhi8(1000)
 2848 1158 0E94 0000 		call __udivmodsi4
 2849 115c 5901      		movw r10,r18
 2850 115e 6A01      		movw r12,r20
GAS LISTING C:\Users\user\AppData\Local\Temp/ccHVvlcI.s 			page 51


 2851 1160 612F      		mov r22,r17
 2852 1162 70E0      		ldi r23,lo8(0)
 2853 1164 80E0      		ldi r24,lo8(0)
 2854 1166 90E0      		ldi r25,hi8(0)
 2855 1168 2CE3      		ldi r18,lo8(60)
 2856 116a 30E0      		ldi r19,hi8(60)
 2857 116c 40E0      		ldi r20,hlo8(60)
 2858 116e 50E0      		ldi r21,hhi8(60)
 2859 1170 0E94 0000 		call __mulsi3
 2860 1174 7B01      		movw r14,r22
 2861 1176 8C01      		movw r16,r24
 2862 1178 E90C      		add r14,r9
 2863 117a F11C      		adc r15,__zero_reg__
 2864 117c 011D      		adc r16,__zero_reg__
 2865 117e 111D      		adc r17,__zero_reg__
 2866 1180 682D      		mov r22,r8
 2867 1182 70E0      		ldi r23,lo8(0)
 2868 1184 80E0      		ldi r24,lo8(0)
 2869 1186 90E0      		ldi r25,hi8(0)
 2870 1188 20E1      		ldi r18,lo8(3600)
 2871 118a 3EE0      		ldi r19,hi8(3600)
 2872 118c 40E0      		ldi r20,hlo8(3600)
 2873 118e 50E0      		ldi r21,hhi8(3600)
 2874 1190 0E94 0000 		call __mulsi3
 2875 1194 E60E      		add r14,r22
 2876 1196 F71E      		adc r15,r23
 2877 1198 081F      		adc r16,r24
 2878 119a 191F      		adc r17,r25
 2879 119c C801      		movw r24,r16
 2880 119e B701      		movw r22,r14
 2881 11a0 24E6      		ldi r18,lo8(100)
 2882 11a2 30E0      		ldi r19,hi8(100)
 2883 11a4 40E0      		ldi r20,hlo8(100)
 2884 11a6 50E0      		ldi r21,hhi8(100)
 2885 11a8 0E94 0000 		call __mulsi3
 2886 11ac A60E      		add r10,r22
 2887 11ae B71E      		adc r11,r23
 2888 11b0 C81E      		adc r12,r24
 2889 11b2 D91E      		adc r13,r25
 2890 11b4 7601      		movw r14,r12
 2891 11b6 0027      		clr r16
 2892 11b8 1127      		clr r17
 2893 11ba E701      		movw r28,r14
 2894 11bc 8FEF      		ldi r24,lo8(65535)
 2895 11be 9FEF      		ldi r25,hi8(65535)
 2896 11c0 A0E0      		ldi r26,hlo8(65535)
 2897 11c2 B0E0      		ldi r27,hhi8(65535)
 2898 11c4 A822      		and r10,r24
 2899 11c6 B922      		and r11,r25
 2900 11c8 CA22      		and r12,r26
 2901 11ca DB22      		and r13,r27
 2902 11cc C501      		movw r24,r10
 2903 11ce 0E94 0000 		call OSTimeDly
 2904 11d2 EF28      		or r14,r15
 2905 11d4 01F0      		breq .L292
 2906               	.L295:
 2907 11d6 80E0      		ldi r24,lo8(-32768)
GAS LISTING C:\Users\user\AppData\Local\Temp/ccHVvlcI.s 			page 52


 2908 11d8 90E8      		ldi r25,hi8(-32768)
 2909 11da 0E94 0000 		call OSTimeDly
 2910 11de 80E0      		ldi r24,lo8(-32768)
 2911 11e0 90E8      		ldi r25,hi8(-32768)
 2912 11e2 0E94 0000 		call OSTimeDly
 2913 11e6 2197      		sbiw r28,1
 2914 11e8 01F4      		brne .L295
 2915               	.L292:
 2916 11ea 80E0      		ldi r24,lo8(0)
 2917 11ec 00C0      		rjmp .L290
 2918               		.size	OSTimeDlyHMSM, .-OSTimeDlyHMSM
 2919               	.global	OS_TaskStat
 2920               		.type	OS_TaskStat, @function
 2921               	OS_TaskStat:
 2922 11ee DF92      		push r13
 2923 11f0 EF92      		push r14
 2924 11f2 FF92      		push r15
 2925 11f4 0F93      		push r16
 2926 11f6 1F93      		push r17
 2927               	/* prologue: function */
 2928               	/* frame size = 0 */
 2929 11f8 8091 0000 		lds r24,OSStatRdy
 2930 11fc 8823      		tst r24
 2931 11fe 01F4      		brne .L301
 2932               	.L308:
 2933 1200 88EC      		ldi r24,lo8(200)
 2934 1202 90E0      		ldi r25,hi8(200)
 2935 1204 0E94 0000 		call OSTimeDly
 2936 1208 8091 0000 		lds r24,OSStatRdy
 2937 120c 8823      		tst r24
 2938 120e 01F0      		breq .L308
 2939               	.L301:
 2940 1210 6091 0000 		lds r22,OSIdleCtrMax
 2941 1214 7091 0000 		lds r23,(OSIdleCtrMax)+1
 2942 1218 8091 0000 		lds r24,(OSIdleCtrMax)+2
 2943 121c 9091 0000 		lds r25,(OSIdleCtrMax)+3
 2944 1220 24E6      		ldi r18,lo8(100)
 2945 1222 30E0      		ldi r19,hi8(100)
 2946 1224 40E0      		ldi r20,hlo8(100)
 2947 1226 50E0      		ldi r21,hhi8(100)
 2948 1228 0E94 0000 		call __udivmodsi4
 2949 122c C901      		movw r24,r18
 2950 122e DA01      		movw r26,r20
 2951 1230 7C01      		movw r14,r24
 2952 1232 8D01      		movw r16,r26
 2953 1234 34E6      		ldi r19,lo8(100)
 2954 1236 D32E      		mov r13,r19
 2955 1238 00C0      		rjmp .L306
 2956               	.L310:
 2957 123a A801      		movw r20,r16
 2958 123c 9701      		movw r18,r14
 2959 123e 0E94 0000 		call __udivmodsi4
 2960 1242 8D2D      		mov r24,r13
 2961 1244 821B      		sub r24,r18
 2962 1246 87FD      		sbrc r24,7
 2963 1248 00C0      		rjmp .L304
 2964 124a 8093 0000 		sts OSCPUUsage,r24
GAS LISTING C:\Users\user\AppData\Local\Temp/ccHVvlcI.s 			page 53


 2965               	.L305:
 2966 124e 0E94 0000 		call OSTaskStatHook
 2967 1252 84E6      		ldi r24,lo8(100)
 2968 1254 90E0      		ldi r25,hi8(100)
 2969 1256 0E94 0000 		call OSTimeDly
 2970               	.L306:
 2971               	/* #APP */
 2972               	 ;  970 "c:/lab2/source/os_core.c" 1
 2973 125a F894      		cli
 2974               	 ;  0 "" 2
 2975               	/* #NOAPP */
 2976 125c 8091 0000 		lds r24,OSIdleCtr
 2977 1260 9091 0000 		lds r25,(OSIdleCtr)+1
 2978 1264 A091 0000 		lds r26,(OSIdleCtr)+2
 2979 1268 B091 0000 		lds r27,(OSIdleCtr)+3
 2980 126c 8093 0000 		sts OSIdleCtrRun,r24
 2981 1270 9093 0000 		sts (OSIdleCtrRun)+1,r25
 2982 1274 A093 0000 		sts (OSIdleCtrRun)+2,r26
 2983 1278 B093 0000 		sts (OSIdleCtrRun)+3,r27
 2984 127c 6091 0000 		lds r22,OSIdleCtr
 2985 1280 7091 0000 		lds r23,(OSIdleCtr)+1
 2986 1284 8091 0000 		lds r24,(OSIdleCtr)+2
 2987 1288 9091 0000 		lds r25,(OSIdleCtr)+3
 2988 128c 1092 0000 		sts OSIdleCtr,__zero_reg__
 2989 1290 1092 0000 		sts (OSIdleCtr)+1,__zero_reg__
 2990 1294 1092 0000 		sts (OSIdleCtr)+2,__zero_reg__
 2991 1298 1092 0000 		sts (OSIdleCtr)+3,__zero_reg__
 2992               	/* #APP */
 2993               	 ;  974 "c:/lab2/source/os_core.c" 1
 2994 129c 7894      		sei
 2995               	 ;  0 "" 2
 2996               	/* #NOAPP */
 2997 129e E114      		cp r14,__zero_reg__
 2998 12a0 F104      		cpc r15,__zero_reg__
 2999 12a2 0105      		cpc r16,__zero_reg__
 3000 12a4 1105      		cpc r17,__zero_reg__
 3001 12a6 01F4      		brne .L310
 3002 12a8 1092 0000 		sts OSCPUUsage,__zero_reg__
 3003 12ac 6091 0000 		lds r22,OSIdleCtrMax
 3004 12b0 7091 0000 		lds r23,(OSIdleCtrMax)+1
 3005 12b4 8091 0000 		lds r24,(OSIdleCtrMax)+2
 3006 12b8 9091 0000 		lds r25,(OSIdleCtrMax)+3
 3007 12bc 24E6      		ldi r18,lo8(100)
 3008 12be 30E0      		ldi r19,hi8(100)
 3009 12c0 40E0      		ldi r20,hlo8(100)
 3010 12c2 50E0      		ldi r21,hhi8(100)
 3011 12c4 0E94 0000 		call __udivmodsi4
 3012 12c8 C901      		movw r24,r18
 3013 12ca DA01      		movw r26,r20
 3014 12cc 7C01      		movw r14,r24
 3015 12ce 8D01      		movw r16,r26
 3016 12d0 00C0      		rjmp .L305
 3017               	.L304:
 3018 12d2 1092 0000 		sts OSCPUUsage,__zero_reg__
 3019 12d6 00C0      		rjmp .L305
 3020               		.size	OS_TaskStat, .-OS_TaskStat
 3021               	.global	OSStatInit
GAS LISTING C:\Users\user\AppData\Local\Temp/ccHVvlcI.s 			page 54


 3022               		.type	OSStatInit, @function
 3023               	OSStatInit:
 3024               	/* prologue: function */
 3025               	/* frame size = 0 */
 3026 12d8 82E0      		ldi r24,lo8(2)
 3027 12da 90E0      		ldi r25,hi8(2)
 3028 12dc 0E94 0000 		call OSTimeDly
 3029               	/* #APP */
 3030               	 ;  339 "c:/lab2/source/os_core.c" 1
 3031 12e0 F894      		cli
 3032               	 ;  0 "" 2
 3033               	/* #NOAPP */
 3034 12e2 1092 0000 		sts OSIdleCtr,__zero_reg__
 3035 12e6 1092 0000 		sts (OSIdleCtr)+1,__zero_reg__
 3036 12ea 1092 0000 		sts (OSIdleCtr)+2,__zero_reg__
 3037 12ee 1092 0000 		sts (OSIdleCtr)+3,__zero_reg__
 3038               	/* #APP */
 3039               	 ;  341 "c:/lab2/source/os_core.c" 1
 3040 12f2 7894      		sei
 3041               	 ;  0 "" 2
 3042               	/* #NOAPP */
 3043 12f4 84E6      		ldi r24,lo8(100)
 3044 12f6 90E0      		ldi r25,hi8(100)
 3045 12f8 0E94 0000 		call OSTimeDly
 3046               	/* #APP */
 3047               	 ;  343 "c:/lab2/source/os_core.c" 1
 3048 12fc F894      		cli
 3049               	 ;  0 "" 2
 3050               	/* #NOAPP */
 3051 12fe 8091 0000 		lds r24,OSIdleCtr
 3052 1302 9091 0000 		lds r25,(OSIdleCtr)+1
 3053 1306 A091 0000 		lds r26,(OSIdleCtr)+2
 3054 130a B091 0000 		lds r27,(OSIdleCtr)+3
 3055 130e 8093 0000 		sts OSIdleCtrMax,r24
 3056 1312 9093 0000 		sts (OSIdleCtrMax)+1,r25
 3057 1316 A093 0000 		sts (OSIdleCtrMax)+2,r26
 3058 131a B093 0000 		sts (OSIdleCtrMax)+3,r27
 3059 131e 81E0      		ldi r24,lo8(1)
 3060 1320 8093 0000 		sts OSStatRdy,r24
 3061               	/* #APP */
 3062               	 ;  346 "c:/lab2/source/os_core.c" 1
 3063 1324 7894      		sei
 3064               	 ;  0 "" 2
 3065               	/* epilogue start */
 3066               	/* #NOAPP */
 3067 1326 0895      		ret
 3068               		.size	OSStatInit, .-OSStatInit
 3069               	.global	OSTaskSuspend
 3070               		.type	OSTaskSuspend, @function
 3071               	OSTaskSuspend:
 3072               	/* prologue: function */
 3073               	/* frame size = 0 */
 3074 1328 982F      		mov r25,r24
 3075 132a 8C30      		cpi r24,lo8(12)
 3076 132c 01F4      		brne .+2
 3077 132e 00C0      		rjmp .L324
 3078 1330 8C50      		subi r24,lo8(-(-12))
GAS LISTING C:\Users\user\AppData\Local\Temp/ccHVvlcI.s 			page 55


 3079 1332 833F      		cpi r24,lo8(-13)
 3080 1334 00F0      		brlo .L325
 3081               	/* #APP */
 3082               	 ;  686 "c:/lab2/source/os_task.c" 1
 3083 1336 F894      		cli
 3084               	 ;  0 "" 2
 3085               	/* #NOAPP */
 3086 1338 9F3F      		cpi r25,lo8(-1)
 3087 133a 01F0      		breq .L326
 3088 133c E091 0000 		lds r30,OSTCBCur
 3089 1340 F091 0000 		lds r31,(OSTCBCur)+1
 3090 1344 E48D      		ldd r30,Z+28
 3091 1346 E917      		cp r30,r25
 3092 1348 01F4      		brne .+2
 3093 134a 00C0      		rjmp .L319
 3094 134c E92F      		mov r30,r25
 3095 134e 20E0      		ldi r18,lo8(0)
 3096               	.L318:
 3097 1350 F0E0      		ldi r31,lo8(0)
 3098 1352 EE0F      		lsl r30
 3099 1354 FF1F      		rol r31
 3100 1356 E050      		subi r30,lo8(-(OSTCBPrioTbl))
 3101 1358 F040      		sbci r31,hi8(-(OSTCBPrioTbl))
 3102 135a A081      		ld r26,Z
 3103 135c B181      		ldd r27,Z+1
 3104 135e 1097      		sbiw r26,0
 3105 1360 01F0      		breq .L327
 3106 1362 5E96      		adiw r26,30
 3107 1364 EC91      		ld r30,X
 3108 1366 5E97      		sbiw r26,30
 3109 1368 F0E0      		ldi r31,lo8(0)
 3110 136a E050      		subi r30,lo8(-(OSRdyTbl))
 3111 136c F040      		sbci r31,hi8(-(OSRdyTbl))
 3112 136e 5F96      		adiw r26,31
 3113 1370 8C91      		ld r24,X
 3114 1372 5F97      		sbiw r26,31
 3115 1374 8095      		com r24
 3116 1376 9081      		ld r25,Z
 3117 1378 8923      		and r24,r25
 3118 137a 8083      		st Z,r24
 3119 137c 8823      		tst r24
 3120 137e 01F0      		breq .L328
 3121               	.L321:
 3122 1380 5B96      		adiw r26,27
 3123 1382 8C91      		ld r24,X
 3124 1384 5B97      		sbiw r26,27
 3125 1386 8860      		ori r24,lo8(8)
 3126 1388 5B96      		adiw r26,27
 3127 138a 8C93      		st X,r24
 3128               	/* #APP */
 3129               	 ;  704 "c:/lab2/source/os_task.c" 1
 3130 138c 7894      		sei
 3131               	 ;  0 "" 2
 3132               	/* #NOAPP */
 3133 138e 2130      		cpi r18,lo8(1)
 3134 1390 01F0      		breq .L322
 3135 1392 80E0      		ldi r24,lo8(0)
GAS LISTING C:\Users\user\AppData\Local\Temp/ccHVvlcI.s 			page 56


 3136 1394 0895      		ret
 3137               	.L325:
 3138 1396 8AE2      		ldi r24,lo8(42)
 3139 1398 0895      		ret
 3140               	.L328:
 3141 139a 9096      		adiw r26,32
 3142 139c 9C91      		ld r25,X
 3143 139e 9097      		sbiw r26,32
 3144 13a0 9095      		com r25
 3145 13a2 8091 0000 		lds r24,OSRdyGrp
 3146 13a6 8923      		and r24,r25
 3147 13a8 8093 0000 		sts OSRdyGrp,r24
 3148 13ac 00C0      		rjmp .L321
 3149               	.L324:
 3150 13ae 8BE5      		ldi r24,lo8(91)
 3151 13b0 0895      		ret
 3152               	.L326:
 3153 13b2 E091 0000 		lds r30,OSTCBCur
 3154 13b6 F091 0000 		lds r31,(OSTCBCur)+1
 3155 13ba E48D      		ldd r30,Z+28
 3156 13bc 21E0      		ldi r18,lo8(1)
 3157 13be 00C0      		rjmp .L318
 3158               	.L327:
 3159               	/* #APP */
 3160               	 ;  697 "c:/lab2/source/os_task.c" 1
 3161 13c0 7894      		sei
 3162               	 ;  0 "" 2
 3163               	/* #NOAPP */
 3164 13c2 8AE5      		ldi r24,lo8(90)
 3165 13c4 0895      		ret
 3166               	.L319:
 3167 13c6 21E0      		ldi r18,lo8(1)
 3168 13c8 00C0      		rjmp .L318
 3169               	.L322:
 3170 13ca 0E94 0000 		call OS_Sched
 3171 13ce 80E0      		ldi r24,lo8(0)
 3172 13d0 0895      		ret
 3173               		.size	OSTaskSuspend, .-OSTaskSuspend
 3174               	.global	OSTaskResume
 3175               		.type	OSTaskResume, @function
 3176               	OSTaskResume:
 3177               	/* prologue: function */
 3178               	/* frame size = 0 */
 3179 13d2 8C30      		cpi r24,lo8(12)
 3180 13d4 00F4      		brsh .L336
 3181               	/* #APP */
 3182               	 ;  554 "c:/lab2/source/os_task.c" 1
 3183 13d6 F894      		cli
 3184               	 ;  0 "" 2
 3185               	/* #NOAPP */
 3186 13d8 E82F      		mov r30,r24
 3187 13da F0E0      		ldi r31,lo8(0)
 3188 13dc EE0F      		lsl r30
 3189 13de FF1F      		rol r31
 3190 13e0 E050      		subi r30,lo8(-(OSTCBPrioTbl))
 3191 13e2 F040      		sbci r31,hi8(-(OSTCBPrioTbl))
 3192 13e4 A081      		ld r26,Z
GAS LISTING C:\Users\user\AppData\Local\Temp/ccHVvlcI.s 			page 57


 3193 13e6 B181      		ldd r27,Z+1
 3194 13e8 1097      		sbiw r26,0
 3195 13ea 01F0      		breq .L337
 3196 13ec 5B96      		adiw r26,27
 3197 13ee 8C91      		ld r24,X
 3198 13f0 5B97      		sbiw r26,27
 3199 13f2 83FD      		sbrc r24,3
 3200 13f4 00C0      		rjmp .L338
 3201               	/* #APP */
 3202               	 ;  572 "c:/lab2/source/os_task.c" 1
 3203 13f6 7894      		sei
 3204               	 ;  0 "" 2
 3205               	/* #NOAPP */
 3206 13f8 85E6      		ldi r24,lo8(101)
 3207 13fa 0895      		ret
 3208               	.L336:
 3209 13fc 8AE2      		ldi r24,lo8(42)
 3210 13fe 0895      		ret
 3211               	.L337:
 3212               	/* #APP */
 3213               	 ;  557 "c:/lab2/source/os_task.c" 1
 3214 1400 7894      		sei
 3215               	 ;  0 "" 2
 3216               	/* #NOAPP */
 3217 1402 84E6      		ldi r24,lo8(100)
 3218 1404 0895      		ret
 3219               	.L338:
 3220 1406 877F      		andi r24,lo8(-9)
 3221 1408 5B96      		adiw r26,27
 3222 140a 8C93      		st X,r24
 3223 140c 5B97      		sbiw r26,27
 3224 140e 8823      		tst r24
 3225 1410 01F4      		brne .L334
 3226 1412 5996      		adiw r26,25
 3227 1414 8D91      		ld r24,X+
 3228 1416 9C91      		ld r25,X
 3229 1418 5A97      		sbiw r26,25+1
 3230 141a 892B      		or r24,r25
 3231 141c 01F0      		breq .L339
 3232               	.L334:
 3233               	/* #APP */
 3234               	 ;  568 "c:/lab2/source/os_task.c" 1
 3235 141e 7894      		sei
 3236               	 ;  0 "" 2
 3237               	/* #NOAPP */
 3238 1420 80E0      		ldi r24,lo8(0)
 3239 1422 0895      		ret
 3240               	.L339:
 3241 1424 8091 0000 		lds r24,OSRdyGrp
 3242 1428 9096      		adiw r26,32
 3243 142a 9C91      		ld r25,X
 3244 142c 9097      		sbiw r26,32
 3245 142e 892B      		or r24,r25
 3246 1430 8093 0000 		sts OSRdyGrp,r24
 3247 1434 5E96      		adiw r26,30
 3248 1436 EC91      		ld r30,X
 3249 1438 5E97      		sbiw r26,30
GAS LISTING C:\Users\user\AppData\Local\Temp/ccHVvlcI.s 			page 58


 3250 143a F0E0      		ldi r31,lo8(0)
 3251 143c E050      		subi r30,lo8(-(OSRdyTbl))
 3252 143e F040      		sbci r31,hi8(-(OSRdyTbl))
 3253 1440 8081      		ld r24,Z
 3254 1442 5F96      		adiw r26,31
 3255 1444 9C91      		ld r25,X
 3256 1446 892B      		or r24,r25
 3257 1448 8083      		st Z,r24
 3258               	/* #APP */
 3259               	 ;  565 "c:/lab2/source/os_task.c" 1
 3260 144a 7894      		sei
 3261               	 ;  0 "" 2
 3262               	/* #NOAPP */
 3263 144c 0E94 0000 		call OS_Sched
 3264 1450 80E0      		ldi r24,lo8(0)
 3265 1452 0895      		ret
 3266               		.size	OSTaskResume, .-OSTaskResume
 3267               	.global	OSTaskDel
 3268               		.type	OSTaskDel, @function
 3269               	OSTaskDel:
 3270 1454 0F93      		push r16
 3271 1456 1F93      		push r17
 3272 1458 CF93      		push r28
 3273 145a DF93      		push r29
 3274               	/* prologue: function */
 3275               	/* frame size = 0 */
 3276 145c E82F      		mov r30,r24
 3277 145e 8091 0000 		lds r24,OSIntNesting
 3278 1462 8823      		tst r24
 3279 1464 01F0      		breq .+2
 3280 1466 00C0      		rjmp .L355
 3281 1468 EC30      		cpi r30,lo8(12)
 3282 146a 01F4      		brne .+2
 3283 146c 00C0      		rjmp .L356
 3284 146e 8E2F      		mov r24,r30
 3285 1470 8C50      		subi r24,lo8(-(-12))
 3286 1472 833F      		cpi r24,lo8(-13)
 3287 1474 00F4      		brsh .+2
 3288 1476 00C0      		rjmp .L357
 3289               	/* #APP */
 3290               	 ;  385 "c:/lab2/source/os_task.c" 1
 3291 1478 F894      		cli
 3292               	 ;  0 "" 2
 3293               	/* #NOAPP */
 3294 147a EF3F      		cpi r30,lo8(-1)
 3295 147c 01F4      		brne .+2
 3296 147e 00C0      		rjmp .L358
 3297               	.L345:
 3298 1480 0E2F      		mov r16,r30
 3299 1482 10E0      		ldi r17,lo8(0)
 3300 1484 000F      		lsl r16
 3301 1486 111F      		rol r17
 3302 1488 F801      		movw r30,r16
 3303 148a E050      		subi r30,lo8(-(OSTCBPrioTbl))
 3304 148c F040      		sbci r31,hi8(-(OSTCBPrioTbl))
 3305 148e C081      		ld r28,Z
 3306 1490 D181      		ldd r29,Z+1
GAS LISTING C:\Users\user\AppData\Local\Temp/ccHVvlcI.s 			page 59


 3307 1492 2097      		sbiw r28,0
 3308 1494 01F4      		brne .+2
 3309 1496 00C0      		rjmp .L346
 3310 1498 8E8D      		ldd r24,Y+30
 3311 149a 482F      		mov r20,r24
 3312 149c 50E0      		ldi r21,lo8(0)
 3313 149e 2F8D      		ldd r18,Y+31
 3314 14a0 2095      		com r18
 3315 14a2 FA01      		movw r30,r20
 3316 14a4 E050      		subi r30,lo8(-(OSRdyTbl))
 3317 14a6 F040      		sbci r31,hi8(-(OSRdyTbl))
 3318 14a8 8081      		ld r24,Z
 3319 14aa 8223      		and r24,r18
 3320 14ac 8083      		st Z,r24
 3321 14ae 8823      		tst r24
 3322 14b0 01F4      		brne .L347
 3323 14b2 98A1      		ldd r25,Y+32
 3324 14b4 9095      		com r25
 3325 14b6 8091 0000 		lds r24,OSRdyGrp
 3326 14ba 8923      		and r24,r25
 3327 14bc 8093 0000 		sts OSRdyGrp,r24
 3328               	.L347:
 3329 14c0 AA89      		ldd r26,Y+18
 3330 14c2 BB89      		ldd r27,Y+19
 3331 14c4 1097      		sbiw r26,0
 3332 14c6 01F0      		breq .L348
 3333 14c8 FD01      		movw r30,r26
 3334 14ca E40F      		add r30,r20
 3335 14cc F51F      		adc r31,r21
 3336 14ce 8681      		ldd r24,Z+6
 3337 14d0 8223      		and r24,r18
 3338 14d2 8683      		std Z+6,r24
 3339 14d4 8823      		tst r24
 3340 14d6 01F4      		brne .L348
 3341 14d8 98A1      		ldd r25,Y+32
 3342 14da 9095      		com r25
 3343 14dc 1196      		adiw r26,1
 3344 14de 8C91      		ld r24,X
 3345 14e0 1197      		sbiw r26,1
 3346 14e2 8923      		and r24,r25
 3347 14e4 1196      		adiw r26,1
 3348 14e6 8C93      		st X,r24
 3349               	.L348:
 3350 14e8 8E89      		ldd r24,Y+22
 3351 14ea 9F89      		ldd r25,Y+23
 3352 14ec 0097      		sbiw r24,0
 3353 14ee 01F0      		breq .L349
 3354 14f0 0E94 0000 		call OS_FlagUnlink
 3355               	.L349:
 3356 14f4 1A8E      		std Y+26,__zero_reg__
 3357 14f6 198E      		std Y+25,__zero_reg__
 3358 14f8 1B8E      		std Y+27,__zero_reg__
 3359 14fa 8091 0000 		lds r24,OSLockNesting
 3360 14fe 8F3F      		cpi r24,lo8(-1)
 3361 1500 01F0      		breq .L350
 3362 1502 8F5F      		subi r24,lo8(-(1))
 3363 1504 8093 0000 		sts OSLockNesting,r24
GAS LISTING C:\Users\user\AppData\Local\Temp/ccHVvlcI.s 			page 60


 3364               	.L350:
 3365               	/* #APP */
 3366               	 ;  413 "c:/lab2/source/os_task.c" 1
 3367 1508 7894      		sei
 3368               	 ;  0 "" 2
 3369               	 ;  415 "c:/lab2/source/os_task.c" 1
 3370 150a F894      		cli
 3371               	 ;  0 "" 2
 3372               	/* #NOAPP */
 3373 150c 8823      		tst r24
 3374 150e 01F0      		breq .L351
 3375 1510 8150      		subi r24,lo8(-(-1))
 3376 1512 8093 0000 		sts OSLockNesting,r24
 3377               	.L351:
 3378 1516 CE01      		movw r24,r28
 3379 1518 0E94 0000 		call OSTaskDelHook
 3380 151c 8091 0000 		lds r24,OSTaskCtr
 3381 1520 8150      		subi r24,lo8(-(-1))
 3382 1522 8093 0000 		sts OSTaskCtr,r24
 3383 1526 0050      		subi r16,lo8(-(OSTCBPrioTbl))
 3384 1528 1040      		sbci r17,hi8(-(OSTCBPrioTbl))
 3385 152a F801      		movw r30,r16
 3386 152c 1182      		std Z+1,__zero_reg__
 3387 152e 1082      		st Z,__zero_reg__
 3388 1530 A889      		ldd r26,Y+16
 3389 1532 B989      		ldd r27,Y+17
 3390 1534 1097      		sbiw r26,0
 3391 1536 01F0      		breq .L359
 3392 1538 8E85      		ldd r24,Y+14
 3393 153a 9F85      		ldd r25,Y+15
 3394 153c 1F96      		adiw r26,14+1
 3395 153e 9C93      		st X,r25
 3396 1540 8E93      		st -X,r24
 3397 1542 1E97      		sbiw r26,14
 3398 1544 EE85      		ldd r30,Y+14
 3399 1546 FF85      		ldd r31,Y+15
 3400 1548 B18B      		std Z+17,r27
 3401 154a A08B      		std Z+16,r26
 3402               	.L353:
 3403 154c 8091 0000 		lds r24,OSTCBFreeList
 3404 1550 9091 0000 		lds r25,(OSTCBFreeList)+1
 3405 1554 9F87      		std Y+15,r25
 3406 1556 8E87      		std Y+14,r24
 3407 1558 D093 0000 		sts (OSTCBFreeList)+1,r29
 3408 155c C093 0000 		sts OSTCBFreeList,r28
 3409               	/* #APP */
 3410               	 ;  431 "c:/lab2/source/os_task.c" 1
 3411 1560 7894      		sei
 3412               	 ;  0 "" 2
 3413               	/* #NOAPP */
 3414 1562 0E94 0000 		call OS_Sched
 3415 1566 80E0      		ldi r24,lo8(0)
 3416 1568 DF91      		pop r29
 3417 156a CF91      		pop r28
 3418 156c 1F91      		pop r17
 3419 156e 0F91      		pop r16
 3420 1570 0895      		ret
GAS LISTING C:\Users\user\AppData\Local\Temp/ccHVvlcI.s 			page 61


 3421               	.L357:
 3422 1572 8AE2      		ldi r24,lo8(42)
 3423               	.L342:
 3424               	/* epilogue start */
 3425 1574 DF91      		pop r29
 3426 1576 CF91      		pop r28
 3427 1578 1F91      		pop r17
 3428 157a 0F91      		pop r16
 3429 157c 0895      		ret
 3430               	.L355:
 3431 157e 8FE3      		ldi r24,lo8(63)
 3432 1580 DF91      		pop r29
 3433 1582 CF91      		pop r28
 3434 1584 1F91      		pop r17
 3435 1586 0F91      		pop r16
 3436 1588 0895      		ret
 3437               	.L356:
 3438 158a 8DE3      		ldi r24,lo8(61)
 3439 158c DF91      		pop r29
 3440 158e CF91      		pop r28
 3441 1590 1F91      		pop r17
 3442 1592 0F91      		pop r16
 3443 1594 0895      		ret
 3444               	.L358:
 3445 1596 E091 0000 		lds r30,OSTCBCur
 3446 159a F091 0000 		lds r31,(OSTCBCur)+1
 3447 159e E48D      		ldd r30,Z+28
 3448 15a0 00C0      		rjmp .L345
 3449               	.L346:
 3450               	/* #APP */
 3451               	 ;  435 "c:/lab2/source/os_task.c" 1
 3452 15a2 7894      		sei
 3453               	 ;  0 "" 2
 3454               	/* #NOAPP */
 3455 15a4 8CE3      		ldi r24,lo8(60)
 3456 15a6 00C0      		rjmp .L342
 3457               	.L359:
 3458 15a8 EE85      		ldd r30,Y+14
 3459 15aa FF85      		ldd r31,Y+15
 3460 15ac 118A      		std Z+17,__zero_reg__
 3461 15ae 108A      		std Z+16,__zero_reg__
 3462 15b0 F093 0000 		sts (OSTCBList)+1,r31
 3463 15b4 E093 0000 		sts OSTCBList,r30
 3464 15b8 00C0      		rjmp .L353
 3465               		.size	OSTaskDel, .-OSTaskDel
 3466               	.global	OSTaskCreateExt
 3467               		.type	OSTaskCreateExt, @function
 3468               	OSTaskCreateExt:
 3469 15ba 2F92      		push r2
 3470 15bc 3F92      		push r3
 3471 15be 4F92      		push r4
 3472 15c0 5F92      		push r5
 3473 15c2 6F92      		push r6
 3474 15c4 7F92      		push r7
 3475 15c6 8F92      		push r8
 3476 15c8 9F92      		push r9
 3477 15ca AF92      		push r10
GAS LISTING C:\Users\user\AppData\Local\Temp/ccHVvlcI.s 			page 62


 3478 15cc BF92      		push r11
 3479 15ce CF92      		push r12
 3480 15d0 DF92      		push r13
 3481 15d2 EF92      		push r14
 3482 15d4 FF92      		push r15
 3483 15d6 0F93      		push r16
 3484 15d8 1F93      		push r17
 3485 15da DF93      		push r29
 3486 15dc CF93      		push r28
 3487 15de 00D0      		rcall .
 3488 15e0 00D0      		rcall .
 3489 15e2 0F92      		push __tmp_reg__
 3490 15e4 CDB7      		in r28,__SP_L__
 3491 15e6 DEB7      		in r29,__SP_H__
 3492               	/* prologue: function */
 3493               	/* frame size = 5 */
 3494 15e8 2C01      		movw r4,r24
 3495 15ea 1B01      		movw r2,r22
 3496 15ec 5A83      		std Y+2,r21
 3497 15ee 4983      		std Y+1,r20
 3498 15f0 722E      		mov r7,r18
 3499 15f2 6A2C      		mov r6,r10
 3500 15f4 BB82      		std Y+3,r11
 3501 15f6 CC82      		std Y+4,r12
 3502 15f8 DD82      		std Y+5,r13
 3503 15fa 6401      		movw r12,r8
 3504 15fc AA8C      		ldd r10,Y+26
 3505 15fe BB8C      		ldd r11,Y+27
 3506 1600 8CE0      		ldi r24,lo8(12)
 3507 1602 8217      		cp r24,r18
 3508 1604 00F0      		brlo .L368
 3509               	/* #APP */
 3510               	 ;  285 "c:/lab2/source/os_task.c" 1
 3511 1606 F894      		cli
 3512               	 ;  0 "" 2
 3513               	/* #NOAPP */
 3514 1608 822E      		mov r8,r18
 3515 160a 9924      		clr r9
 3516 160c 880C      		lsl r8
 3517 160e 991C      		rol r9
 3518 1610 F401      		movw r30,r8
 3519 1612 E050      		subi r30,lo8(-(OSTCBPrioTbl))
 3520 1614 F040      		sbci r31,hi8(-(OSTCBPrioTbl))
 3521 1616 8081      		ld r24,Z
 3522 1618 9181      		ldd r25,Z+1
 3523 161a 892B      		or r24,r25
 3524 161c 01F0      		breq .L369
 3525               	/* #APP */
 3526               	 ;  316 "c:/lab2/source/os_task.c" 1
 3527 161e 7894      		sei
 3528               	 ;  0 "" 2
 3529               	/* #NOAPP */
 3530 1620 18E2      		ldi r17,lo8(40)
 3531               	.L362:
 3532 1622 812F      		mov r24,r17
 3533               	/* epilogue start */
 3534 1624 0F90      		pop __tmp_reg__
GAS LISTING C:\Users\user\AppData\Local\Temp/ccHVvlcI.s 			page 63


 3535 1626 0F90      		pop __tmp_reg__
 3536 1628 0F90      		pop __tmp_reg__
 3537 162a 0F90      		pop __tmp_reg__
 3538 162c 0F90      		pop __tmp_reg__
 3539 162e CF91      		pop r28
 3540 1630 DF91      		pop r29
 3541 1632 1F91      		pop r17
 3542 1634 0F91      		pop r16
 3543 1636 FF90      		pop r15
 3544 1638 EF90      		pop r14
 3545 163a DF90      		pop r13
 3546 163c CF90      		pop r12
 3547 163e BF90      		pop r11
 3548 1640 AF90      		pop r10
 3549 1642 9F90      		pop r9
 3550 1644 8F90      		pop r8
 3551 1646 7F90      		pop r7
 3552 1648 6F90      		pop r6
 3553 164a 5F90      		pop r5
 3554 164c 4F90      		pop r4
 3555 164e 3F90      		pop r3
 3556 1650 2F90      		pop r2
 3557 1652 0895      		ret
 3558               	.L368:
 3559 1654 1AE2      		ldi r17,lo8(42)
 3560 1656 00C0      		rjmp .L362
 3561               	.L369:
 3562 1658 81E0      		ldi r24,lo8(1)
 3563 165a 90E0      		ldi r25,hi8(1)
 3564 165c 9183      		std Z+1,r25
 3565 165e 8083      		st Z,r24
 3566               	/* #APP */
 3567               	 ;  289 "c:/lab2/source/os_task.c" 1
 3568 1660 7894      		sei
 3569               	 ;  0 "" 2
 3570               	/* #NOAPP */
 3571 1662 A0FC      		sbrc r10,0
 3572 1664 00C0      		rjmp .L364
 3573 1666 A1FE      		sbrs r10,1
 3574 1668 00C0      		rjmp .L365
 3575               	.L364:
 3576 166a C701      		movw r24,r14
 3577 166c 60E0      		ldi r22,lo8(0)
 3578 166e 70E0      		ldi r23,hi8(0)
 3579 1670 462D      		mov r20,r6
 3580 1672 5B81      		ldd r21,Y+3
 3581 1674 0E94 0000 		call memset
 3582               	.L365:
 3583 1678 C201      		movw r24,r4
 3584 167a B101      		movw r22,r2
 3585 167c 4981      		ldd r20,Y+1
 3586 167e 5A81      		ldd r21,Y+2
 3587 1680 9501      		movw r18,r10
 3588 1682 0E94 0000 		call OSTaskStkInit
 3589 1686 BC01      		movw r22,r24
 3590 1688 872D      		mov r24,r7
 3591 168a A701      		movw r20,r14
GAS LISTING C:\Users\user\AppData\Local\Temp/ccHVvlcI.s 			page 64


 3592 168c 9801      		movw r18,r16
 3593 168e E62C      		mov r14,r6
 3594 1690 FB80      		ldd r15,Y+3
 3595 1692 0C81      		ldd r16,Y+4
 3596 1694 1D81      		ldd r17,Y+5
 3597 1696 0E94 0000 		call OS_TCBInit
 3598 169a 182F      		mov r17,r24
 3599 169c 8823      		tst r24
 3600 169e 01F4      		brne .L366
 3601               	/* #APP */
 3602               	 ;  303 "c:/lab2/source/os_task.c" 1
 3603 16a0 F894      		cli
 3604               	 ;  0 "" 2
 3605               	/* #NOAPP */
 3606 16a2 8091 0000 		lds r24,OSTaskCtr
 3607 16a6 8F5F      		subi r24,lo8(-(1))
 3608 16a8 8093 0000 		sts OSTaskCtr,r24
 3609               	/* #APP */
 3610               	 ;  305 "c:/lab2/source/os_task.c" 1
 3611 16ac 7894      		sei
 3612               	 ;  0 "" 2
 3613               	/* #NOAPP */
 3614 16ae 8091 0000 		lds r24,OSRunning
 3615 16b2 8130      		cpi r24,lo8(1)
 3616 16b4 01F0      		breq .+2
 3617 16b6 00C0      		rjmp .L362
 3618 16b8 0E94 0000 		call OS_Sched
 3619 16bc 00C0      		rjmp .L362
 3620               	.L366:
 3621               	/* #APP */
 3622               	 ;  310 "c:/lab2/source/os_task.c" 1
 3623 16be F894      		cli
 3624               	 ;  0 "" 2
 3625               	/* #NOAPP */
 3626 16c0 E0E0      		ldi r30,lo8(OSTCBPrioTbl)
 3627 16c2 F0E0      		ldi r31,hi8(OSTCBPrioTbl)
 3628 16c4 8E0E      		add r8,r30
 3629 16c6 9F1E      		adc r9,r31
 3630 16c8 F401      		movw r30,r8
 3631 16ca 1182      		std Z+1,__zero_reg__
 3632 16cc 1082      		st Z,__zero_reg__
 3633               	/* #APP */
 3634               	 ;  312 "c:/lab2/source/os_task.c" 1
 3635 16ce 7894      		sei
 3636               	 ;  0 "" 2
 3637               	/* #NOAPP */
 3638 16d0 00C0      		rjmp .L362
 3639               		.size	OSTaskCreateExt, .-OSTaskCreateExt
 3640               	.global	OSTaskCreate
 3641               		.type	OSTaskCreate, @function
 3642               	OSTaskCreate:
 3643 16d2 AF92      		push r10
 3644 16d4 BF92      		push r11
 3645 16d6 CF92      		push r12
 3646 16d8 DF92      		push r13
 3647 16da EF92      		push r14
 3648 16dc FF92      		push r15
GAS LISTING C:\Users\user\AppData\Local\Temp/ccHVvlcI.s 			page 65


 3649 16de 0F93      		push r16
 3650 16e0 1F93      		push r17
 3651 16e2 CF93      		push r28
 3652 16e4 DF93      		push r29
 3653               	/* prologue: function */
 3654               	/* frame size = 0 */
 3655 16e6 FC01      		movw r30,r24
 3656 16e8 122F      		mov r17,r18
 3657 16ea 2D30      		cpi r18,lo8(13)
 3658 16ec 00F4      		brsh .L376
 3659               	/* #APP */
 3660               	 ;  172 "c:/lab2/source/os_task.c" 1
 3661 16ee F894      		cli
 3662               	 ;  0 "" 2
 3663               	/* #NOAPP */
 3664 16f0 C22F      		mov r28,r18
 3665 16f2 D0E0      		ldi r29,lo8(0)
 3666 16f4 CC0F      		lsl r28
 3667 16f6 DD1F      		rol r29
 3668 16f8 C050      		subi r28,lo8(-(OSTCBPrioTbl))
 3669 16fa D040      		sbci r29,hi8(-(OSTCBPrioTbl))
 3670 16fc 8881      		ld r24,Y
 3671 16fe 9981      		ldd r25,Y+1
 3672 1700 892B      		or r24,r25
 3673 1702 01F0      		breq .L377
 3674               	/* #APP */
 3675               	 ;  193 "c:/lab2/source/os_task.c" 1
 3676 1704 7894      		sei
 3677               	 ;  0 "" 2
 3678               	/* #NOAPP */
 3679 1706 18E2      		ldi r17,lo8(40)
 3680               	.L372:
 3681 1708 812F      		mov r24,r17
 3682               	/* epilogue start */
 3683 170a DF91      		pop r29
 3684 170c CF91      		pop r28
 3685 170e 1F91      		pop r17
 3686 1710 0F91      		pop r16
 3687 1712 FF90      		pop r15
 3688 1714 EF90      		pop r14
 3689 1716 DF90      		pop r13
 3690 1718 CF90      		pop r12
 3691 171a BF90      		pop r11
 3692 171c AF90      		pop r10
 3693 171e 0895      		ret
 3694               	.L376:
 3695 1720 1AE2      		ldi r17,lo8(42)
 3696 1722 00C0      		rjmp .L372
 3697               	.L377:
 3698 1724 81E0      		ldi r24,lo8(1)
 3699 1726 90E0      		ldi r25,hi8(1)
 3700 1728 9983      		std Y+1,r25
 3701 172a 8883      		st Y,r24
 3702               	/* #APP */
 3703               	 ;  176 "c:/lab2/source/os_task.c" 1
 3704 172c 7894      		sei
 3705               	 ;  0 "" 2
GAS LISTING C:\Users\user\AppData\Local\Temp/ccHVvlcI.s 			page 66


 3706               	/* #NOAPP */
 3707 172e CF01      		movw r24,r30
 3708 1730 20E0      		ldi r18,lo8(0)
 3709 1732 30E0      		ldi r19,hi8(0)
 3710 1734 0E94 0000 		call OSTaskStkInit
 3711 1738 BC01      		movw r22,r24
 3712 173a 812F      		mov r24,r17
 3713 173c 40E0      		ldi r20,lo8(0)
 3714 173e 50E0      		ldi r21,hi8(0)
 3715 1740 20E0      		ldi r18,lo8(0)
 3716 1742 30E0      		ldi r19,hi8(0)
 3717 1744 EE24      		clr r14
 3718 1746 FF24      		clr r15
 3719 1748 8701      		movw r16,r14
 3720 174a CC24      		clr r12
 3721 174c DD24      		clr r13
 3722 174e AA24      		clr r10
 3723 1750 BB24      		clr r11
 3724 1752 0E94 0000 		call OS_TCBInit
 3725 1756 182F      		mov r17,r24
 3726 1758 8823      		tst r24
 3727 175a 01F4      		brne .L374
 3728               	/* #APP */
 3729               	 ;  180 "c:/lab2/source/os_task.c" 1
 3730 175c F894      		cli
 3731               	 ;  0 "" 2
 3732               	/* #NOAPP */
 3733 175e 8091 0000 		lds r24,OSTaskCtr
 3734 1762 8F5F      		subi r24,lo8(-(1))
 3735 1764 8093 0000 		sts OSTaskCtr,r24
 3736               	/* #APP */
 3737               	 ;  182 "c:/lab2/source/os_task.c" 1
 3738 1768 7894      		sei
 3739               	 ;  0 "" 2
 3740               	/* #NOAPP */
 3741 176a 8091 0000 		lds r24,OSRunning
 3742 176e 8130      		cpi r24,lo8(1)
 3743 1770 01F4      		brne .L372
 3744 1772 0E94 0000 		call OS_Sched
 3745 1776 00C0      		rjmp .L372
 3746               	.L374:
 3747               	/* #APP */
 3748               	 ;  187 "c:/lab2/source/os_task.c" 1
 3749 1778 F894      		cli
 3750               	 ;  0 "" 2
 3751               	/* #NOAPP */
 3752 177a 1982      		std Y+1,__zero_reg__
 3753 177c 1882      		st Y,__zero_reg__
 3754               	/* #APP */
 3755               	 ;  189 "c:/lab2/source/os_task.c" 1
 3756 177e 7894      		sei
 3757               	 ;  0 "" 2
 3758               	/* #NOAPP */
 3759 1780 00C0      		rjmp .L372
 3760               		.size	OSTaskCreate, .-OSTaskCreate
 3761               	.global	OSTaskChangePrio
 3762               		.type	OSTaskChangePrio, @function
GAS LISTING C:\Users\user\AppData\Local\Temp/ccHVvlcI.s 			page 67


 3763               	OSTaskChangePrio:
 3764 1782 DF92      		push r13
 3765 1784 EF92      		push r14
 3766 1786 FF92      		push r15
 3767 1788 0F93      		push r16
 3768 178a 1F93      		push r17
 3769 178c CF93      		push r28
 3770 178e DF93      		push r29
 3771               	/* prologue: function */
 3772               	/* frame size = 0 */
 3773 1790 282F      		mov r18,r24
 3774 1792 8C50      		subi r24,lo8(-(-12))
 3775 1794 833F      		cpi r24,lo8(-13)
 3776 1796 00F0      		brlo .L379
 3777 1798 6C30      		cpi r22,lo8(12)
 3778 179a 00F4      		brsh .L379
 3779               	/* #APP */
 3780               	 ;  64 "c:/lab2/source/os_task.c" 1
 3781 179c F894      		cli
 3782               	 ;  0 "" 2
 3783               	/* #NOAPP */
 3784 179e A62F      		mov r26,r22
 3785 17a0 B0E0      		ldi r27,lo8(0)
 3786 17a2 AA0F      		lsl r26
 3787 17a4 BB1F      		rol r27
 3788 17a6 FD01      		movw r30,r26
 3789 17a8 E050      		subi r30,lo8(-(OSTCBPrioTbl))
 3790 17aa F040      		sbci r31,hi8(-(OSTCBPrioTbl))
 3791 17ac 8081      		ld r24,Z
 3792 17ae 9181      		ldd r25,Z+1
 3793 17b0 892B      		or r24,r25
 3794 17b2 01F0      		breq .L380
 3795               	/* #APP */
 3796               	 ;  66 "c:/lab2/source/os_task.c" 1
 3797 17b4 7894      		sei
 3798               	 ;  0 "" 2
 3799               	/* #NOAPP */
 3800 17b6 88E2      		ldi r24,lo8(40)
 3801 17b8 DF91      		pop r29
 3802 17ba CF91      		pop r28
 3803 17bc 1F91      		pop r17
 3804 17be 0F91      		pop r16
 3805 17c0 FF90      		pop r15
 3806 17c2 EF90      		pop r14
 3807 17c4 DF90      		pop r13
 3808 17c6 0895      		ret
 3809               	.L379:
 3810 17c8 8AE2      		ldi r24,lo8(42)
 3811               	.L381:
 3812               	/* epilogue start */
 3813 17ca DF91      		pop r29
 3814 17cc CF91      		pop r28
 3815 17ce 1F91      		pop r17
 3816 17d0 0F91      		pop r16
 3817 17d2 FF90      		pop r15
 3818 17d4 EF90      		pop r14
 3819 17d6 DF90      		pop r13
GAS LISTING C:\Users\user\AppData\Local\Temp/ccHVvlcI.s 			page 68


 3820 17d8 0895      		ret
 3821               	.L380:
 3822 17da 81E0      		ldi r24,lo8(1)
 3823 17dc 90E0      		ldi r25,hi8(1)
 3824 17de 9183      		std Z+1,r25
 3825 17e0 8083      		st Z,r24
 3826               	/* #APP */
 3827               	 ;  70 "c:/lab2/source/os_task.c" 1
 3828 17e2 7894      		sei
 3829               	 ;  0 "" 2
 3830               	/* #NOAPP */
 3831 17e4 D62E      		mov r13,r22
 3832 17e6 D694      		lsr r13
 3833 17e8 D694      		lsr r13
 3834 17ea D694      		lsr r13
 3835 17ec 0D2D      		mov r16,r13
 3836 17ee 10E0      		ldi r17,lo8(0)
 3837 17f0 F801      		movw r30,r16
 3838 17f2 E050      		subi r30,lo8(-(OSMapTbl))
 3839 17f4 F040      		sbci r31,hi8(-(OSMapTbl))
 3840 17f6 F080      		ld r15,Z
 3841 17f8 97E0      		ldi r25,lo8(7)
 3842 17fa E92E      		mov r14,r25
 3843 17fc E622      		and r14,r22
 3844 17fe EE2D      		mov r30,r14
 3845 1800 F0E0      		ldi r31,lo8(0)
 3846 1802 E050      		subi r30,lo8(-(OSMapTbl))
 3847 1804 F040      		sbci r31,hi8(-(OSMapTbl))
 3848 1806 7081      		ld r23,Z
 3849               	/* #APP */
 3850               	 ;  75 "c:/lab2/source/os_task.c" 1
 3851 1808 F894      		cli
 3852               	 ;  0 "" 2
 3853               	/* #NOAPP */
 3854 180a 2F3F      		cpi r18,lo8(-1)
 3855 180c 01F4      		brne .+2
 3856 180e 00C0      		rjmp .L393
 3857               	.L382:
 3858 1810 E22F      		mov r30,r18
 3859 1812 F0E0      		ldi r31,lo8(0)
 3860 1814 EE0F      		lsl r30
 3861 1816 FF1F      		rol r31
 3862 1818 E050      		subi r30,lo8(-(OSTCBPrioTbl))
 3863 181a F040      		sbci r31,hi8(-(OSTCBPrioTbl))
 3864 181c C081      		ld r28,Z
 3865 181e D181      		ldd r29,Z+1
 3866 1820 2097      		sbiw r28,0
 3867 1822 01F4      		brne .+2
 3868 1824 00C0      		rjmp .L383
 3869 1826 1182      		std Z+1,__zero_reg__
 3870 1828 1082      		st Z,__zero_reg__
 3871 182a 8E8D      		ldd r24,Y+30
 3872 182c 482F      		mov r20,r24
 3873 182e 50E0      		ldi r21,lo8(0)
 3874 1830 FA01      		movw r30,r20
 3875 1832 E050      		subi r30,lo8(-(OSRdyTbl))
 3876 1834 F040      		sbci r31,hi8(-(OSRdyTbl))
GAS LISTING C:\Users\user\AppData\Local\Temp/ccHVvlcI.s 			page 69


 3877 1836 2081      		ld r18,Z
 3878 1838 9F8D      		ldd r25,Y+31
 3879 183a 822F      		mov r24,r18
 3880 183c 8923      		and r24,r25
 3881 183e 01F0      		breq .L384
 3882 1840 892F      		mov r24,r25
 3883 1842 8095      		com r24
 3884 1844 8223      		and r24,r18
 3885 1846 8083      		st Z,r24
 3886 1848 8823      		tst r24
 3887 184a 01F4      		brne .+2
 3888 184c 00C0      		rjmp .L391
 3889 184e 9091 0000 		lds r25,OSRdyGrp
 3890               	.L385:
 3891 1852 9F29      		or r25,r15
 3892 1854 9093 0000 		sts OSRdyGrp,r25
 3893 1858 F801      		movw r30,r16
 3894 185a E050      		subi r30,lo8(-(OSRdyTbl))
 3895 185c F040      		sbci r31,hi8(-(OSRdyTbl))
 3896 185e 8081      		ld r24,Z
 3897 1860 872B      		or r24,r23
 3898 1862 8083      		st Z,r24
 3899               	.L386:
 3900 1864 A050      		subi r26,lo8(-(OSTCBPrioTbl))
 3901 1866 B040      		sbci r27,hi8(-(OSTCBPrioTbl))
 3902 1868 CD93      		st X+,r28
 3903 186a DC93      		st X,r29
 3904 186c 6C8F      		std Y+28,r22
 3905 186e DE8E      		std Y+30,r13
 3906 1870 ED8E      		std Y+29,r14
 3907 1872 F8A2      		std Y+32,r15
 3908 1874 7F8F      		std Y+31,r23
 3909               	/* #APP */
 3910               	 ;  106 "c:/lab2/source/os_task.c" 1
 3911 1876 7894      		sei
 3912               	 ;  0 "" 2
 3913               	/* #NOAPP */
 3914 1878 0E94 0000 		call OS_Sched
 3915 187c 80E0      		ldi r24,lo8(0)
 3916 187e 00C0      		rjmp .L381
 3917               	.L384:
 3918 1880 2A89      		ldd r18,Y+18
 3919 1882 3B89      		ldd r19,Y+19
 3920 1884 2115      		cp r18,__zero_reg__
 3921 1886 3105      		cpc r19,__zero_reg__
 3922 1888 01F0      		breq .L386
 3923 188a F901      		movw r30,r18
 3924 188c E40F      		add r30,r20
 3925 188e F51F      		adc r31,r21
 3926 1890 892F      		mov r24,r25
 3927 1892 8095      		com r24
 3928 1894 9681      		ldd r25,Z+6
 3929 1896 8923      		and r24,r25
 3930 1898 8683      		std Z+6,r24
 3931 189a 8823      		tst r24
 3932 189c 01F0      		breq .L392
 3933 189e F901      		movw r30,r18
GAS LISTING C:\Users\user\AppData\Local\Temp/ccHVvlcI.s 			page 70


 3934 18a0 9181      		ldd r25,Z+1
 3935               	.L387:
 3936 18a2 9F29      		or r25,r15
 3937 18a4 F901      		movw r30,r18
 3938 18a6 9183      		std Z+1,r25
 3939 18a8 E00F      		add r30,r16
 3940 18aa F11F      		adc r31,r17
 3941 18ac 8681      		ldd r24,Z+6
 3942 18ae 872B      		or r24,r23
 3943 18b0 8683      		std Z+6,r24
 3944 18b2 00C0      		rjmp .L386
 3945               	.L393:
 3946 18b4 E091 0000 		lds r30,OSTCBCur
 3947 18b8 F091 0000 		lds r31,(OSTCBCur)+1
 3948 18bc 248D      		ldd r18,Z+28
 3949 18be 00C0      		rjmp .L382
 3950               	.L383:
 3951 18c0 A050      		subi r26,lo8(-(OSTCBPrioTbl))
 3952 18c2 B040      		sbci r27,hi8(-(OSTCBPrioTbl))
 3953 18c4 1D92      		st X+,__zero_reg__
 3954 18c6 1C92      		st X,__zero_reg__
 3955               	/* #APP */
 3956               	 ;  111 "c:/lab2/source/os_task.c" 1
 3957 18c8 7894      		sei
 3958               	 ;  0 "" 2
 3959               	/* #NOAPP */
 3960 18ca 89E2      		ldi r24,lo8(41)
 3961 18cc 00C0      		rjmp .L381
 3962               	.L391:
 3963 18ce 88A1      		ldd r24,Y+32
 3964 18d0 8095      		com r24
 3965 18d2 9091 0000 		lds r25,OSRdyGrp
 3966 18d6 9823      		and r25,r24
 3967 18d8 00C0      		rjmp .L385
 3968               	.L392:
 3969 18da 88A1      		ldd r24,Y+32
 3970 18dc 8095      		com r24
 3971 18de F901      		movw r30,r18
 3972 18e0 9181      		ldd r25,Z+1
 3973 18e2 9823      		and r25,r24
 3974 18e4 9183      		std Z+1,r25
 3975 18e6 00C0      		rjmp .L387
 3976               		.size	OSTaskChangePrio, .-OSTaskChangePrio
 3977               	.global	OSSemPost
 3978               		.type	OSSemPost, @function
 3979               	OSSemPost:
 3980               	/* prologue: function */
 3981               	/* frame size = 0 */
 3982 18e8 FC01      		movw r30,r24
 3983 18ea 0097      		sbiw r24,0
 3984 18ec 01F0      		breq .L401
 3985 18ee 8081      		ld r24,Z
 3986 18f0 8330      		cpi r24,lo8(3)
 3987 18f2 01F0      		breq .L397
 3988 18f4 81E0      		ldi r24,lo8(1)
 3989 18f6 0895      		ret
 3990               	.L397:
GAS LISTING C:\Users\user\AppData\Local\Temp/ccHVvlcI.s 			page 71


 3991               	/* #APP */
 3992               	 ;  323 "c:/lab2/source/os_sem.c" 1
 3993 18f8 F894      		cli
 3994               	 ;  0 "" 2
 3995               	/* #NOAPP */
 3996 18fa 8181      		ldd r24,Z+1
 3997 18fc 8823      		tst r24
 3998 18fe 01F4      		brne .L402
 3999 1900 8281      		ldd r24,Z+2
 4000 1902 9381      		ldd r25,Z+3
 4001 1904 2FEF      		ldi r18,hi8(-1)
 4002 1906 8F3F      		cpi r24,lo8(-1)
 4003 1908 9207      		cpc r25,r18
 4004 190a 01F0      		breq .L399
 4005 190c 0196      		adiw r24,1
 4006 190e 9383      		std Z+3,r25
 4007 1910 8283      		std Z+2,r24
 4008               	/* #APP */
 4009               	 ;  332 "c:/lab2/source/os_sem.c" 1
 4010 1912 7894      		sei
 4011               	 ;  0 "" 2
 4012               	/* #NOAPP */
 4013 1914 80E0      		ldi r24,lo8(0)
 4014 1916 0895      		ret
 4015               	.L399:
 4016               	/* #APP */
 4017               	 ;  335 "c:/lab2/source/os_sem.c" 1
 4018 1918 7894      		sei
 4019               	 ;  0 "" 2
 4020               	/* #NOAPP */
 4021 191a 82E3      		ldi r24,lo8(50)
 4022 191c 0895      		ret
 4023               	.L401:
 4024 191e 84E0      		ldi r24,lo8(4)
 4025 1920 0895      		ret
 4026               	.L402:
 4027 1922 CF01      		movw r24,r30
 4028 1924 60E0      		ldi r22,lo8(0)
 4029 1926 70E0      		ldi r23,hi8(0)
 4030 1928 41E0      		ldi r20,lo8(1)
 4031 192a 0E94 0000 		call OS_EventTaskRdy
 4032               	/* #APP */
 4033               	 ;  326 "c:/lab2/source/os_sem.c" 1
 4034 192e 7894      		sei
 4035               	 ;  0 "" 2
 4036               	/* #NOAPP */
 4037 1930 0E94 0000 		call OS_Sched
 4038 1934 80E0      		ldi r24,lo8(0)
 4039 1936 0895      		ret
 4040               		.size	OSSemPost, .-OSSemPost
 4041               	.global	OSSemPend
 4042               		.type	OSSemPend, @function
 4043               	OSSemPend:
 4044 1938 0F93      		push r16
 4045 193a 1F93      		push r17
 4046 193c CF93      		push r28
 4047 193e DF93      		push r29
GAS LISTING C:\Users\user\AppData\Local\Temp/ccHVvlcI.s 			page 72


 4048               	/* prologue: function */
 4049               	/* frame size = 0 */
 4050 1940 EC01      		movw r28,r24
 4051 1942 8A01      		movw r16,r20
 4052 1944 8091 0000 		lds r24,OSIntNesting
 4053 1948 8823      		tst r24
 4054 194a 01F4      		brne .L411
 4055 194c 2097      		sbiw r28,0
 4056 194e 01F0      		breq .L412
 4057 1950 8881      		ld r24,Y
 4058 1952 8330      		cpi r24,lo8(3)
 4059 1954 01F0      		breq .L407
 4060 1956 81E0      		ldi r24,lo8(1)
 4061 1958 FA01      		movw r30,r20
 4062 195a 8083      		st Z,r24
 4063               	.L410:
 4064               	/* epilogue start */
 4065 195c DF91      		pop r29
 4066 195e CF91      		pop r28
 4067 1960 1F91      		pop r17
 4068 1962 0F91      		pop r16
 4069 1964 0895      		ret
 4070               	.L411:
 4071 1966 82E0      		ldi r24,lo8(2)
 4072 1968 FA01      		movw r30,r20
 4073 196a 8083      		st Z,r24
 4074 196c DF91      		pop r29
 4075 196e CF91      		pop r28
 4076 1970 1F91      		pop r17
 4077 1972 0F91      		pop r16
 4078 1974 0895      		ret
 4079               	.L412:
 4080 1976 84E0      		ldi r24,lo8(4)
 4081 1978 FA01      		movw r30,r20
 4082 197a 8083      		st Z,r24
 4083 197c 00C0      		rjmp .L410
 4084               	.L407:
 4085               	/* #APP */
 4086               	 ;  265 "c:/lab2/source/os_sem.c" 1
 4087 197e F894      		cli
 4088               	 ;  0 "" 2
 4089               	/* #NOAPP */
 4090 1980 8A81      		ldd r24,Y+2
 4091 1982 9B81      		ldd r25,Y+3
 4092 1984 0097      		sbiw r24,0
 4093 1986 01F0      		breq .L408
 4094 1988 0197      		sbiw r24,1
 4095 198a 9B83      		std Y+3,r25
 4096 198c 8A83      		std Y+2,r24
 4097               	/* #APP */
 4098               	 ;  268 "c:/lab2/source/os_sem.c" 1
 4099 198e 7894      		sei
 4100               	 ;  0 "" 2
 4101               	/* #NOAPP */
 4102 1990 FA01      		movw r30,r20
 4103 1992 1082      		st Z,__zero_reg__
 4104 1994 DF91      		pop r29
GAS LISTING C:\Users\user\AppData\Local\Temp/ccHVvlcI.s 			page 73


 4105 1996 CF91      		pop r28
 4106 1998 1F91      		pop r17
 4107 199a 0F91      		pop r16
 4108 199c 0895      		ret
 4109               	.L408:
 4110 199e E091 0000 		lds r30,OSTCBCur
 4111 19a2 F091 0000 		lds r31,(OSTCBCur)+1
 4112 19a6 838D      		ldd r24,Z+27
 4113 19a8 8160      		ori r24,lo8(1)
 4114 19aa 838F      		std Z+27,r24
 4115 19ac 728F      		std Z+26,r23
 4116 19ae 618F      		std Z+25,r22
 4117 19b0 CE01      		movw r24,r28
 4118 19b2 0E94 0000 		call OS_EventTaskWait
 4119               	/* #APP */
 4120               	 ;  276 "c:/lab2/source/os_sem.c" 1
 4121 19b6 7894      		sei
 4122               	 ;  0 "" 2
 4123               	/* #NOAPP */
 4124 19b8 0E94 0000 		call OS_Sched
 4125               	/* #APP */
 4126               	 ;  278 "c:/lab2/source/os_sem.c" 1
 4127 19bc F894      		cli
 4128               	 ;  0 "" 2
 4129               	/* #NOAPP */
 4130 19be E091 0000 		lds r30,OSTCBCur
 4131 19c2 F091 0000 		lds r31,(OSTCBCur)+1
 4132 19c6 838D      		ldd r24,Z+27
 4133 19c8 80FD      		sbrc r24,0
 4134 19ca 00C0      		rjmp .L413
 4135 19cc 138A      		std Z+19,__zero_reg__
 4136 19ce 128A      		std Z+18,__zero_reg__
 4137               	/* #APP */
 4138               	 ;  286 "c:/lab2/source/os_sem.c" 1
 4139 19d0 7894      		sei
 4140               	 ;  0 "" 2
 4141               	/* #NOAPP */
 4142 19d2 F801      		movw r30,r16
 4143 19d4 1082      		st Z,__zero_reg__
 4144 19d6 00C0      		rjmp .L410
 4145               	.L413:
 4146 19d8 CE01      		movw r24,r28
 4147 19da 0E94 0000 		call OS_EventTO
 4148               	/* #APP */
 4149               	 ;  281 "c:/lab2/source/os_sem.c" 1
 4150 19de 7894      		sei
 4151               	 ;  0 "" 2
 4152               	/* #NOAPP */
 4153 19e0 8AE0      		ldi r24,lo8(10)
 4154 19e2 F801      		movw r30,r16
 4155 19e4 8083      		st Z,r24
 4156 19e6 00C0      		rjmp .L410
 4157               		.size	OSSemPend, .-OSSemPend
 4158               	.global	OSSemDel
 4159               		.type	OSSemDel, @function
 4160               	OSSemDel:
 4161 19e8 FF92      		push r15
GAS LISTING C:\Users\user\AppData\Local\Temp/ccHVvlcI.s 			page 74


 4162 19ea 0F93      		push r16
 4163 19ec 1F93      		push r17
 4164 19ee CF93      		push r28
 4165 19f0 DF93      		push r29
 4166               	/* prologue: function */
 4167               	/* frame size = 0 */
 4168 19f2 EC01      		movw r28,r24
 4169 19f4 8A01      		movw r16,r20
 4170 19f6 8091 0000 		lds r24,OSIntNesting
 4171 19fa 8823      		tst r24
 4172 19fc 01F4      		brne .L431
 4173 19fe 2097      		sbiw r28,0
 4174 1a00 01F0      		breq .L432
 4175 1a02 8881      		ld r24,Y
 4176 1a04 8330      		cpi r24,lo8(3)
 4177 1a06 01F0      		breq .L418
 4178 1a08 81E0      		ldi r24,lo8(1)
 4179 1a0a FA01      		movw r30,r20
 4180 1a0c 8083      		st Z,r24
 4181               	.L416:
 4182 1a0e CE01      		movw r24,r28
 4183               	/* epilogue start */
 4184 1a10 DF91      		pop r29
 4185 1a12 CF91      		pop r28
 4186 1a14 1F91      		pop r17
 4187 1a16 0F91      		pop r16
 4188 1a18 FF90      		pop r15
 4189 1a1a 0895      		ret
 4190               	.L431:
 4191 1a1c 8CE8      		ldi r24,lo8(-116)
 4192 1a1e FA01      		movw r30,r20
 4193 1a20 8083      		st Z,r24
 4194 1a22 CE01      		movw r24,r28
 4195 1a24 DF91      		pop r29
 4196 1a26 CF91      		pop r28
 4197 1a28 1F91      		pop r17
 4198 1a2a 0F91      		pop r16
 4199 1a2c FF90      		pop r15
 4200 1a2e 0895      		ret
 4201               	.L432:
 4202 1a30 84E0      		ldi r24,lo8(4)
 4203 1a32 FA01      		movw r30,r20
 4204 1a34 8083      		st Z,r24
 4205 1a36 00C0      		rjmp .L416
 4206               	.L418:
 4207               	/* #APP */
 4208               	 ;  170 "c:/lab2/source/os_sem.c" 1
 4209 1a38 F894      		cli
 4210               	 ;  0 "" 2
 4211               	/* #NOAPP */
 4212 1a3a F980      		ldd r15,Y+1
 4213 1a3c FF20      		tst r15
 4214 1a3e 01F0      		breq .L419
 4215 1a40 FF24      		clr r15
 4216 1a42 F394      		inc r15
 4217               	.L419:
 4218 1a44 6623      		tst r22
GAS LISTING C:\Users\user\AppData\Local\Temp/ccHVvlcI.s 			page 75


 4219 1a46 01F4      		brne .L433
 4220 1a48 FF20      		tst r15
 4221 1a4a 01F0      		breq .L434
 4222               	/* #APP */
 4223               	 ;  186 "c:/lab2/source/os_sem.c" 1
 4224 1a4c 7894      		sei
 4225               	 ;  0 "" 2
 4226               	/* #NOAPP */
 4227 1a4e 88E0      		ldi r24,lo8(8)
 4228 1a50 F801      		movw r30,r16
 4229 1a52 8083      		st Z,r24
 4230 1a54 00C0      		rjmp .L416
 4231               	.L433:
 4232 1a56 6130      		cpi r22,lo8(1)
 4233 1a58 01F0      		breq .L435
 4234               	/* #APP */
 4235               	 ;  206 "c:/lab2/source/os_sem.c" 1
 4236 1a5a 7894      		sei
 4237               	 ;  0 "" 2
 4238               	/* #NOAPP */
 4239 1a5c 87E0      		ldi r24,lo8(7)
 4240 1a5e F801      		movw r30,r16
 4241 1a60 8083      		st Z,r24
 4242 1a62 00C0      		rjmp .L416
 4243               	.L435:
 4244 1a64 FF20      		tst r15
 4245 1a66 01F0      		breq .L424
 4246               	.L428:
 4247 1a68 CE01      		movw r24,r28
 4248 1a6a 60E0      		ldi r22,lo8(0)
 4249 1a6c 70E0      		ldi r23,hi8(0)
 4250 1a6e 41E0      		ldi r20,lo8(1)
 4251 1a70 0E94 0000 		call OS_EventTaskRdy
 4252 1a74 8981      		ldd r24,Y+1
 4253 1a76 8823      		tst r24
 4254 1a78 01F4      		brne .L428
 4255               	.L424:
 4256 1a7a 1882      		st Y,__zero_reg__
 4257 1a7c 8091 0000 		lds r24,OSEventFreeList
 4258 1a80 9091 0000 		lds r25,(OSEventFreeList)+1
 4259 1a84 9D83      		std Y+5,r25
 4260 1a86 8C83      		std Y+4,r24
 4261 1a88 D093 0000 		sts (OSEventFreeList)+1,r29
 4262 1a8c C093 0000 		sts OSEventFreeList,r28
 4263               	/* #APP */
 4264               	 ;  198 "c:/lab2/source/os_sem.c" 1
 4265 1a90 7894      		sei
 4266               	 ;  0 "" 2
 4267               	/* #NOAPP */
 4268 1a92 F1E0      		ldi r31,lo8(1)
 4269 1a94 FF16      		cp r15,r31
 4270 1a96 01F0      		breq .L436
 4271               	.L426:
 4272 1a98 F801      		movw r30,r16
 4273 1a9a 1082      		st Z,__zero_reg__
 4274 1a9c C0E0      		ldi r28,lo8(0)
 4275 1a9e D0E0      		ldi r29,hi8(0)
GAS LISTING C:\Users\user\AppData\Local\Temp/ccHVvlcI.s 			page 76


 4276 1aa0 00C0      		rjmp .L416
 4277               	.L436:
 4278 1aa2 0E94 0000 		call OS_Sched
 4279 1aa6 00C0      		rjmp .L426
 4280               	.L434:
 4281 1aa8 1882      		st Y,__zero_reg__
 4282 1aaa 8091 0000 		lds r24,OSEventFreeList
 4283 1aae 9091 0000 		lds r25,(OSEventFreeList)+1
 4284 1ab2 9D83      		std Y+5,r25
 4285 1ab4 8C83      		std Y+4,r24
 4286 1ab6 D093 0000 		sts (OSEventFreeList)+1,r29
 4287 1aba C093 0000 		sts OSEventFreeList,r28
 4288               	/* #APP */
 4289               	 ;  182 "c:/lab2/source/os_sem.c" 1
 4290 1abe 7894      		sei
 4291               	 ;  0 "" 2
 4292               	/* #NOAPP */
 4293 1ac0 F801      		movw r30,r16
 4294 1ac2 1082      		st Z,__zero_reg__
 4295 1ac4 C0E0      		ldi r28,lo8(0)
 4296 1ac6 D0E0      		ldi r29,hi8(0)
 4297 1ac8 00C0      		rjmp .L416
 4298               		.size	OSSemDel, .-OSSemDel
 4299               	.global	OSQPostOpt
 4300               		.type	OSQPostOpt, @function
 4301               	OSQPostOpt:
 4302 1aca 0F93      		push r16
 4303 1acc 1F93      		push r17
 4304 1ace CF93      		push r28
 4305 1ad0 DF93      		push r29
 4306               	/* prologue: function */
 4307               	/* frame size = 0 */
 4308 1ad2 EC01      		movw r28,r24
 4309 1ad4 8B01      		movw r16,r22
 4310 1ad6 0097      		sbiw r24,0
 4311 1ad8 01F0      		breq .L453
 4312 1ada 6115      		cp r22,__zero_reg__
 4313 1adc 7105      		cpc r23,__zero_reg__
 4314 1ade 01F0      		breq .L454
 4315 1ae0 8881      		ld r24,Y
 4316 1ae2 8230      		cpi r24,lo8(2)
 4317 1ae4 01F0      		breq .L441
 4318 1ae6 81E0      		ldi r24,lo8(1)
 4319               	.L439:
 4320               	/* epilogue start */
 4321 1ae8 DF91      		pop r29
 4322 1aea CF91      		pop r28
 4323 1aec 1F91      		pop r17
 4324 1aee 0F91      		pop r16
 4325 1af0 0895      		ret
 4326               	.L441:
 4327               	/* #APP */
 4328               	 ;  565 "c:/lab2/source/os_q.c" 1
 4329 1af2 F894      		cli
 4330               	 ;  0 "" 2
 4331               	/* #NOAPP */
 4332 1af4 8981      		ldd r24,Y+1
GAS LISTING C:\Users\user\AppData\Local\Temp/ccHVvlcI.s 			page 77


 4333 1af6 8823      		tst r24
 4334 1af8 01F0      		breq .L442
 4335 1afa 40FF      		sbrs r20,0
 4336 1afc 00C0      		rjmp .L443
 4337               	.L451:
 4338 1afe CE01      		movw r24,r28
 4339 1b00 B801      		movw r22,r16
 4340 1b02 44E0      		ldi r20,lo8(4)
 4341 1b04 0E94 0000 		call OS_EventTaskRdy
 4342 1b08 8981      		ldd r24,Y+1
 4343 1b0a 8823      		tst r24
 4344 1b0c 01F4      		brne .L451
 4345               	.L445:
 4346               	/* #APP */
 4347               	 ;  574 "c:/lab2/source/os_q.c" 1
 4348 1b0e 7894      		sei
 4349               	 ;  0 "" 2
 4350               	/* #NOAPP */
 4351 1b10 0E94 0000 		call OS_Sched
 4352 1b14 80E0      		ldi r24,lo8(0)
 4353 1b16 DF91      		pop r29
 4354 1b18 CF91      		pop r28
 4355 1b1a 1F91      		pop r17
 4356 1b1c 0F91      		pop r16
 4357 1b1e 0895      		ret
 4358               	.L442:
 4359 1b20 AC81      		ldd r26,Y+4
 4360 1b22 BD81      		ldd r27,Y+5
 4361 1b24 1C96      		adiw r26,12
 4362 1b26 2D91      		ld r18,X+
 4363 1b28 3C91      		ld r19,X
 4364 1b2a 1D97      		sbiw r26,12+1
 4365 1b2c 1A96      		adiw r26,10
 4366 1b2e 8D91      		ld r24,X+
 4367 1b30 9C91      		ld r25,X
 4368 1b32 1B97      		sbiw r26,10+1
 4369 1b34 2817      		cp r18,r24
 4370 1b36 3907      		cpc r19,r25
 4371 1b38 00F0      		brlo .L446
 4372               	/* #APP */
 4373               	 ;  580 "c:/lab2/source/os_q.c" 1
 4374 1b3a 7894      		sei
 4375               	 ;  0 "" 2
 4376               	/* #NOAPP */
 4377 1b3c 8EE1      		ldi r24,lo8(30)
 4378 1b3e 00C0      		rjmp .L439
 4379               	.L454:
 4380 1b40 83E0      		ldi r24,lo8(3)
 4381 1b42 DF91      		pop r29
 4382 1b44 CF91      		pop r28
 4383 1b46 1F91      		pop r17
 4384 1b48 0F91      		pop r16
 4385 1b4a 0895      		ret
 4386               	.L453:
 4387 1b4c 84E0      		ldi r24,lo8(4)
 4388 1b4e 00C0      		rjmp .L439
 4389               	.L446:
GAS LISTING C:\Users\user\AppData\Local\Temp/ccHVvlcI.s 			page 78


 4390 1b50 41FF      		sbrs r20,1
 4391 1b52 00C0      		rjmp .L447
 4392 1b54 1896      		adiw r26,8
 4393 1b56 ED91      		ld r30,X+
 4394 1b58 FC91      		ld r31,X
 4395 1b5a 1997      		sbiw r26,8+1
 4396 1b5c 1296      		adiw r26,2
 4397 1b5e 8D91      		ld r24,X+
 4398 1b60 9C91      		ld r25,X
 4399 1b62 1397      		sbiw r26,2+1
 4400 1b64 E817      		cp r30,r24
 4401 1b66 F907      		cpc r31,r25
 4402 1b68 01F0      		breq .L455
 4403               	.L448:
 4404 1b6a 3297      		sbiw r30,2
 4405 1b6c 1996      		adiw r26,8+1
 4406 1b6e FC93      		st X,r31
 4407 1b70 EE93      		st -X,r30
 4408 1b72 1897      		sbiw r26,8
 4409 1b74 1183      		std Z+1,r17
 4410 1b76 0083      		st Z,r16
 4411               	.L449:
 4412 1b78 2F5F      		subi r18,lo8(-(1))
 4413 1b7a 3F4F      		sbci r19,hi8(-(1))
 4414 1b7c 1D96      		adiw r26,12+1
 4415 1b7e 3C93      		st X,r19
 4416 1b80 2E93      		st -X,r18
 4417 1b82 1C97      		sbiw r26,12
 4418               	/* #APP */
 4419               	 ;  596 "c:/lab2/source/os_q.c" 1
 4420 1b84 7894      		sei
 4421               	 ;  0 "" 2
 4422               	/* #NOAPP */
 4423 1b86 80E0      		ldi r24,lo8(0)
 4424 1b88 00C0      		rjmp .L439
 4425               	.L443:
 4426 1b8a CE01      		movw r24,r28
 4427 1b8c 44E0      		ldi r20,lo8(4)
 4428 1b8e 0E94 0000 		call OS_EventTaskRdy
 4429 1b92 00C0      		rjmp .L445
 4430               	.L447:
 4431 1b94 1696      		adiw r26,6
 4432 1b96 ED91      		ld r30,X+
 4433 1b98 FC91      		ld r31,X
 4434 1b9a 1797      		sbiw r26,6+1
 4435 1b9c 6193      		st Z+,r22
 4436 1b9e 7193      		st Z+,r23
 4437 1ba0 1796      		adiw r26,6+1
 4438 1ba2 FC93      		st X,r31
 4439 1ba4 EE93      		st -X,r30
 4440 1ba6 1697      		sbiw r26,6
 4441 1ba8 1496      		adiw r26,4
 4442 1baa 8D91      		ld r24,X+
 4443 1bac 9C91      		ld r25,X
 4444 1bae 1597      		sbiw r26,4+1
 4445 1bb0 E817      		cp r30,r24
 4446 1bb2 F907      		cpc r31,r25
GAS LISTING C:\Users\user\AppData\Local\Temp/ccHVvlcI.s 			page 79


 4447 1bb4 01F4      		brne .L449
 4448 1bb6 1296      		adiw r26,2
 4449 1bb8 8D91      		ld r24,X+
 4450 1bba 9C91      		ld r25,X
 4451 1bbc 1397      		sbiw r26,2+1
 4452 1bbe 1796      		adiw r26,6+1
 4453 1bc0 9C93      		st X,r25
 4454 1bc2 8E93      		st -X,r24
 4455 1bc4 1697      		sbiw r26,6
 4456 1bc6 00C0      		rjmp .L449
 4457               	.L455:
 4458 1bc8 1496      		adiw r26,4
 4459 1bca ED91      		ld r30,X+
 4460 1bcc FC91      		ld r31,X
 4461 1bce 1597      		sbiw r26,4+1
 4462 1bd0 1996      		adiw r26,8+1
 4463 1bd2 FC93      		st X,r31
 4464 1bd4 EE93      		st -X,r30
 4465 1bd6 1897      		sbiw r26,8
 4466 1bd8 00C0      		rjmp .L448
 4467               		.size	OSQPostOpt, .-OSQPostOpt
 4468               	.global	OSQPostFront
 4469               		.type	OSQPostFront, @function
 4470               	OSQPostFront:
 4471               	/* prologue: function */
 4472               	/* frame size = 0 */
 4473 1bda FC01      		movw r30,r24
 4474 1bdc 0097      		sbiw r24,0
 4475 1bde 01F0      		breq .L465
 4476 1be0 6115      		cp r22,__zero_reg__
 4477 1be2 7105      		cpc r23,__zero_reg__
 4478 1be4 01F0      		breq .L466
 4479 1be6 8081      		ld r24,Z
 4480 1be8 8230      		cpi r24,lo8(2)
 4481 1bea 01F0      		breq .L460
 4482 1bec 81E0      		ldi r24,lo8(1)
 4483 1bee 0895      		ret
 4484               	.L460:
 4485               	/* #APP */
 4486               	 ;  479 "c:/lab2/source/os_q.c" 1
 4487 1bf0 F894      		cli
 4488               	 ;  0 "" 2
 4489               	/* #NOAPP */
 4490 1bf2 8181      		ldd r24,Z+1
 4491 1bf4 8823      		tst r24
 4492 1bf6 01F4      		brne .L467
 4493 1bf8 A481      		ldd r26,Z+4
 4494 1bfa B581      		ldd r27,Z+5
 4495 1bfc 1C96      		adiw r26,12
 4496 1bfe 2D91      		ld r18,X+
 4497 1c00 3C91      		ld r19,X
 4498 1c02 1D97      		sbiw r26,12+1
 4499 1c04 1A96      		adiw r26,10
 4500 1c06 8D91      		ld r24,X+
 4501 1c08 9C91      		ld r25,X
 4502 1c0a 1B97      		sbiw r26,10+1
 4503 1c0c 2817      		cp r18,r24
GAS LISTING C:\Users\user\AppData\Local\Temp/ccHVvlcI.s 			page 80


 4504 1c0e 3907      		cpc r19,r25
 4505 1c10 00F0      		brlo .L462
 4506               	/* #APP */
 4507               	 ;  488 "c:/lab2/source/os_q.c" 1
 4508 1c12 7894      		sei
 4509               	 ;  0 "" 2
 4510               	/* #NOAPP */
 4511 1c14 8EE1      		ldi r24,lo8(30)
 4512 1c16 0895      		ret
 4513               	.L467:
 4514 1c18 CF01      		movw r24,r30
 4515 1c1a 44E0      		ldi r20,lo8(4)
 4516 1c1c 0E94 0000 		call OS_EventTaskRdy
 4517               	/* #APP */
 4518               	 ;  482 "c:/lab2/source/os_q.c" 1
 4519 1c20 7894      		sei
 4520               	 ;  0 "" 2
 4521               	/* #NOAPP */
 4522 1c22 0E94 0000 		call OS_Sched
 4523 1c26 80E0      		ldi r24,lo8(0)
 4524 1c28 0895      		ret
 4525               	.L466:
 4526 1c2a 83E0      		ldi r24,lo8(3)
 4527 1c2c 0895      		ret
 4528               	.L465:
 4529 1c2e 84E0      		ldi r24,lo8(4)
 4530 1c30 0895      		ret
 4531               	.L462:
 4532 1c32 1896      		adiw r26,8
 4533 1c34 ED91      		ld r30,X+
 4534 1c36 FC91      		ld r31,X
 4535 1c38 1997      		sbiw r26,8+1
 4536 1c3a 1296      		adiw r26,2
 4537 1c3c 8D91      		ld r24,X+
 4538 1c3e 9C91      		ld r25,X
 4539 1c40 1397      		sbiw r26,2+1
 4540 1c42 E817      		cp r30,r24
 4541 1c44 F907      		cpc r31,r25
 4542 1c46 01F0      		breq .L468
 4543               	.L463:
 4544 1c48 3297      		sbiw r30,2
 4545 1c4a 1996      		adiw r26,8+1
 4546 1c4c FC93      		st X,r31
 4547 1c4e EE93      		st -X,r30
 4548 1c50 1897      		sbiw r26,8
 4549 1c52 7183      		std Z+1,r23
 4550 1c54 6083      		st Z,r22
 4551 1c56 2F5F      		subi r18,lo8(-(1))
 4552 1c58 3F4F      		sbci r19,hi8(-(1))
 4553 1c5a 1D96      		adiw r26,12+1
 4554 1c5c 3C93      		st X,r19
 4555 1c5e 2E93      		st -X,r18
 4556 1c60 1C97      		sbiw r26,12
 4557               	/* #APP */
 4558               	 ;  497 "c:/lab2/source/os_q.c" 1
 4559 1c62 7894      		sei
 4560               	 ;  0 "" 2
GAS LISTING C:\Users\user\AppData\Local\Temp/ccHVvlcI.s 			page 81


 4561               	/* #NOAPP */
 4562 1c64 80E0      		ldi r24,lo8(0)
 4563 1c66 0895      		ret
 4564               	.L468:
 4565 1c68 1496      		adiw r26,4
 4566 1c6a ED91      		ld r30,X+
 4567 1c6c FC91      		ld r31,X
 4568 1c6e 1597      		sbiw r26,4+1
 4569 1c70 1996      		adiw r26,8+1
 4570 1c72 FC93      		st X,r31
 4571 1c74 EE93      		st -X,r30
 4572 1c76 1897      		sbiw r26,8
 4573 1c78 00C0      		rjmp .L463
 4574               		.size	OSQPostFront, .-OSQPostFront
 4575               	.global	OSQPost
 4576               		.type	OSQPost, @function
 4577               	OSQPost:
 4578               	/* prologue: function */
 4579               	/* frame size = 0 */
 4580 1c7a FC01      		movw r30,r24
 4581 1c7c 0097      		sbiw r24,0
 4582 1c7e 01F0      		breq .L478
 4583 1c80 6115      		cp r22,__zero_reg__
 4584 1c82 7105      		cpc r23,__zero_reg__
 4585 1c84 01F0      		breq .L479
 4586 1c86 8081      		ld r24,Z
 4587 1c88 8230      		cpi r24,lo8(2)
 4588 1c8a 01F0      		breq .L473
 4589 1c8c 81E0      		ldi r24,lo8(1)
 4590 1c8e 0895      		ret
 4591               	.L473:
 4592               	/* #APP */
 4593               	 ;  417 "c:/lab2/source/os_q.c" 1
 4594 1c90 F894      		cli
 4595               	 ;  0 "" 2
 4596               	/* #NOAPP */
 4597 1c92 8181      		ldd r24,Z+1
 4598 1c94 8823      		tst r24
 4599 1c96 01F4      		brne .L480
 4600 1c98 A481      		ldd r26,Z+4
 4601 1c9a B581      		ldd r27,Z+5
 4602 1c9c 1C96      		adiw r26,12
 4603 1c9e 2D91      		ld r18,X+
 4604 1ca0 3C91      		ld r19,X
 4605 1ca2 1D97      		sbiw r26,12+1
 4606 1ca4 1A96      		adiw r26,10
 4607 1ca6 8D91      		ld r24,X+
 4608 1ca8 9C91      		ld r25,X
 4609 1caa 1B97      		sbiw r26,10+1
 4610 1cac 2817      		cp r18,r24
 4611 1cae 3907      		cpc r19,r25
 4612 1cb0 00F0      		brlo .L475
 4613               	/* #APP */
 4614               	 ;  426 "c:/lab2/source/os_q.c" 1
 4615 1cb2 7894      		sei
 4616               	 ;  0 "" 2
 4617               	/* #NOAPP */
GAS LISTING C:\Users\user\AppData\Local\Temp/ccHVvlcI.s 			page 82


 4618 1cb4 8EE1      		ldi r24,lo8(30)
 4619 1cb6 0895      		ret
 4620               	.L480:
 4621 1cb8 CF01      		movw r24,r30
 4622 1cba 44E0      		ldi r20,lo8(4)
 4623 1cbc 0E94 0000 		call OS_EventTaskRdy
 4624               	/* #APP */
 4625               	 ;  420 "c:/lab2/source/os_q.c" 1
 4626 1cc0 7894      		sei
 4627               	 ;  0 "" 2
 4628               	/* #NOAPP */
 4629 1cc2 0E94 0000 		call OS_Sched
 4630 1cc6 80E0      		ldi r24,lo8(0)
 4631 1cc8 0895      		ret
 4632               	.L479:
 4633 1cca 83E0      		ldi r24,lo8(3)
 4634 1ccc 0895      		ret
 4635               	.L478:
 4636 1cce 84E0      		ldi r24,lo8(4)
 4637 1cd0 0895      		ret
 4638               	.L475:
 4639 1cd2 1696      		adiw r26,6
 4640 1cd4 ED91      		ld r30,X+
 4641 1cd6 FC91      		ld r31,X
 4642 1cd8 1797      		sbiw r26,6+1
 4643 1cda 6193      		st Z+,r22
 4644 1cdc 7193      		st Z+,r23
 4645 1cde 1796      		adiw r26,6+1
 4646 1ce0 FC93      		st X,r31
 4647 1ce2 EE93      		st -X,r30
 4648 1ce4 1697      		sbiw r26,6
 4649 1ce6 2F5F      		subi r18,lo8(-(1))
 4650 1ce8 3F4F      		sbci r19,hi8(-(1))
 4651 1cea 1D96      		adiw r26,12+1
 4652 1cec 3C93      		st X,r19
 4653 1cee 2E93      		st -X,r18
 4654 1cf0 1C97      		sbiw r26,12
 4655 1cf2 1496      		adiw r26,4
 4656 1cf4 8D91      		ld r24,X+
 4657 1cf6 9C91      		ld r25,X
 4658 1cf8 1597      		sbiw r26,4+1
 4659 1cfa E817      		cp r30,r24
 4660 1cfc F907      		cpc r31,r25
 4661 1cfe 01F0      		breq .L481
 4662               	.L476:
 4663               	/* #APP */
 4664               	 ;  434 "c:/lab2/source/os_q.c" 1
 4665 1d00 7894      		sei
 4666               	 ;  0 "" 2
 4667               	/* #NOAPP */
 4668 1d02 80E0      		ldi r24,lo8(0)
 4669 1d04 0895      		ret
 4670               	.L481:
 4671 1d06 1296      		adiw r26,2
 4672 1d08 8D91      		ld r24,X+
 4673 1d0a 9C91      		ld r25,X
 4674 1d0c 1397      		sbiw r26,2+1
GAS LISTING C:\Users\user\AppData\Local\Temp/ccHVvlcI.s 			page 83


 4675 1d0e 1796      		adiw r26,6+1
 4676 1d10 9C93      		st X,r25
 4677 1d12 8E93      		st -X,r24
 4678 1d14 1697      		sbiw r26,6
 4679 1d16 00C0      		rjmp .L476
 4680               		.size	OSQPost, .-OSQPost
 4681               	.global	OSQPend
 4682               		.type	OSQPend, @function
 4683               	OSQPend:
 4684 1d18 EF92      		push r14
 4685 1d1a FF92      		push r15
 4686 1d1c 0F93      		push r16
 4687 1d1e 1F93      		push r17
 4688 1d20 CF93      		push r28
 4689 1d22 DF93      		push r29
 4690               	/* prologue: function */
 4691               	/* frame size = 0 */
 4692 1d24 8C01      		movw r16,r24
 4693 1d26 7A01      		movw r14,r20
 4694 1d28 8091 0000 		lds r24,OSIntNesting
 4695 1d2c 8823      		tst r24
 4696 1d2e 01F0      		breq .+2
 4697 1d30 00C0      		rjmp .L491
 4698 1d32 0115      		cp r16,__zero_reg__
 4699 1d34 1105      		cpc r17,__zero_reg__
 4700 1d36 01F4      		brne .+2
 4701 1d38 00C0      		rjmp .L492
 4702 1d3a F801      		movw r30,r16
 4703 1d3c 8081      		ld r24,Z
 4704 1d3e 8230      		cpi r24,lo8(2)
 4705 1d40 01F0      		breq .+2
 4706 1d42 00C0      		rjmp .L493
 4707               	/* #APP */
 4708               	 ;  346 "c:/lab2/source/os_q.c" 1
 4709 1d44 F894      		cli
 4710               	 ;  0 "" 2
 4711               	/* #NOAPP */
 4712 1d46 F801      		movw r30,r16
 4713 1d48 A481      		ldd r26,Z+4
 4714 1d4a B581      		ldd r27,Z+5
 4715 1d4c 1C96      		adiw r26,12
 4716 1d4e 8D91      		ld r24,X+
 4717 1d50 9C91      		ld r25,X
 4718 1d52 1D97      		sbiw r26,12+1
 4719 1d54 0097      		sbiw r24,0
 4720 1d56 01F0      		breq .L487
 4721 1d58 1896      		adiw r26,8
 4722 1d5a ED91      		ld r30,X+
 4723 1d5c FC91      		ld r31,X
 4724 1d5e 1997      		sbiw r26,8+1
 4725 1d60 C191      		ld r28,Z+
 4726 1d62 D191      		ld r29,Z+
 4727 1d64 1996      		adiw r26,8+1
 4728 1d66 FC93      		st X,r31
 4729 1d68 EE93      		st -X,r30
 4730 1d6a 1897      		sbiw r26,8
 4731 1d6c 0197      		sbiw r24,1
GAS LISTING C:\Users\user\AppData\Local\Temp/ccHVvlcI.s 			page 84


 4732 1d6e 1D96      		adiw r26,12+1
 4733 1d70 9C93      		st X,r25
 4734 1d72 8E93      		st -X,r24
 4735 1d74 1C97      		sbiw r26,12
 4736 1d76 1496      		adiw r26,4
 4737 1d78 8D91      		ld r24,X+
 4738 1d7a 9C91      		ld r25,X
 4739 1d7c 1597      		sbiw r26,4+1
 4740 1d7e E817      		cp r30,r24
 4741 1d80 F907      		cpc r31,r25
 4742 1d82 01F0      		breq .L494
 4743               	.L488:
 4744               	/* #APP */
 4745               	 ;  354 "c:/lab2/source/os_q.c" 1
 4746 1d84 7894      		sei
 4747               	 ;  0 "" 2
 4748               	/* #NOAPP */
 4749 1d86 F701      		movw r30,r14
 4750 1d88 1082      		st Z,__zero_reg__
 4751               	.L484:
 4752 1d8a CE01      		movw r24,r28
 4753               	/* epilogue start */
 4754 1d8c DF91      		pop r29
 4755 1d8e CF91      		pop r28
 4756 1d90 1F91      		pop r17
 4757 1d92 0F91      		pop r16
 4758 1d94 FF90      		pop r15
 4759 1d96 EF90      		pop r14
 4760 1d98 0895      		ret
 4761               	.L487:
 4762 1d9a E091 0000 		lds r30,OSTCBCur
 4763 1d9e F091 0000 		lds r31,(OSTCBCur)+1
 4764 1da2 838D      		ldd r24,Z+27
 4765 1da4 8460      		ori r24,lo8(4)
 4766 1da6 838F      		std Z+27,r24
 4767 1da8 728F      		std Z+26,r23
 4768 1daa 618F      		std Z+25,r22
 4769 1dac C801      		movw r24,r16
 4770 1dae 0E94 0000 		call OS_EventTaskWait
 4771               	/* #APP */
 4772               	 ;  361 "c:/lab2/source/os_q.c" 1
 4773 1db2 7894      		sei
 4774               	 ;  0 "" 2
 4775               	/* #NOAPP */
 4776 1db4 0E94 0000 		call OS_Sched
 4777               	/* #APP */
 4778               	 ;  363 "c:/lab2/source/os_q.c" 1
 4779 1db8 F894      		cli
 4780               	 ;  0 "" 2
 4781               	/* #NOAPP */
 4782 1dba E091 0000 		lds r30,OSTCBCur
 4783 1dbe F091 0000 		lds r31,(OSTCBCur)+1
 4784 1dc2 C489      		ldd r28,Z+20
 4785 1dc4 D589      		ldd r29,Z+21
 4786 1dc6 2097      		sbiw r28,0
 4787 1dc8 01F0      		breq .L489
 4788 1dca 158A      		std Z+21,__zero_reg__
GAS LISTING C:\Users\user\AppData\Local\Temp/ccHVvlcI.s 			page 85


 4789 1dcc 148A      		std Z+20,__zero_reg__
 4790 1dce 138E      		std Z+27,__zero_reg__
 4791 1dd0 138A      		std Z+19,__zero_reg__
 4792 1dd2 128A      		std Z+18,__zero_reg__
 4793               	/* #APP */
 4794               	 ;  369 "c:/lab2/source/os_q.c" 1
 4795 1dd4 7894      		sei
 4796               	 ;  0 "" 2
 4797               	/* #NOAPP */
 4798 1dd6 F701      		movw r30,r14
 4799 1dd8 1082      		st Z,__zero_reg__
 4800 1dda CE01      		movw r24,r28
 4801 1ddc DF91      		pop r29
 4802 1dde CF91      		pop r28
 4803 1de0 1F91      		pop r17
 4804 1de2 0F91      		pop r16
 4805 1de4 FF90      		pop r15
 4806 1de6 EF90      		pop r14
 4807 1de8 0895      		ret
 4808               	.L494:
 4809 1dea 1296      		adiw r26,2
 4810 1dec 8D91      		ld r24,X+
 4811 1dee 9C91      		ld r25,X
 4812 1df0 1397      		sbiw r26,2+1
 4813 1df2 1996      		adiw r26,8+1
 4814 1df4 9C93      		st X,r25
 4815 1df6 8E93      		st -X,r24
 4816 1df8 1897      		sbiw r26,8
 4817 1dfa 00C0      		rjmp .L488
 4818               	.L493:
 4819 1dfc 81E0      		ldi r24,lo8(1)
 4820 1dfe FA01      		movw r30,r20
 4821 1e00 8083      		st Z,r24
 4822 1e02 C0E0      		ldi r28,lo8(0)
 4823 1e04 D0E0      		ldi r29,hi8(0)
 4824 1e06 00C0      		rjmp .L484
 4825               	.L491:
 4826 1e08 82E0      		ldi r24,lo8(2)
 4827 1e0a FA01      		movw r30,r20
 4828 1e0c 8083      		st Z,r24
 4829 1e0e C0E0      		ldi r28,lo8(0)
 4830 1e10 D0E0      		ldi r29,hi8(0)
 4831 1e12 00C0      		rjmp .L484
 4832               	.L492:
 4833 1e14 84E0      		ldi r24,lo8(4)
 4834 1e16 FA01      		movw r30,r20
 4835 1e18 8083      		st Z,r24
 4836 1e1a C0E0      		ldi r28,lo8(0)
 4837 1e1c D0E0      		ldi r29,hi8(0)
 4838 1e1e 00C0      		rjmp .L484
 4839               	.L489:
 4840 1e20 C801      		movw r24,r16
 4841 1e22 0E94 0000 		call OS_EventTO
 4842               	/* #APP */
 4843               	 ;  374 "c:/lab2/source/os_q.c" 1
 4844 1e26 7894      		sei
 4845               	 ;  0 "" 2
GAS LISTING C:\Users\user\AppData\Local\Temp/ccHVvlcI.s 			page 86


 4846               	/* #NOAPP */
 4847 1e28 8AE0      		ldi r24,lo8(10)
 4848 1e2a F701      		movw r30,r14
 4849 1e2c 8083      		st Z,r24
 4850 1e2e 00C0      		rjmp .L484
 4851               		.size	OSQPend, .-OSQPend
 4852               	.global	OSQDel
 4853               		.type	OSQDel, @function
 4854               	OSQDel:
 4855 1e30 FF92      		push r15
 4856 1e32 0F93      		push r16
 4857 1e34 1F93      		push r17
 4858 1e36 CF93      		push r28
 4859 1e38 DF93      		push r29
 4860               	/* prologue: function */
 4861               	/* frame size = 0 */
 4862 1e3a EC01      		movw r28,r24
 4863 1e3c 8A01      		movw r16,r20
 4864 1e3e 8091 0000 		lds r24,OSIntNesting
 4865 1e42 8823      		tst r24
 4866 1e44 01F0      		breq .+2
 4867 1e46 00C0      		rjmp .L512
 4868 1e48 2097      		sbiw r28,0
 4869 1e4a 01F0      		breq .L513
 4870 1e4c 8881      		ld r24,Y
 4871 1e4e 8230      		cpi r24,lo8(2)
 4872 1e50 01F0      		breq .L499
 4873 1e52 81E0      		ldi r24,lo8(1)
 4874 1e54 FA01      		movw r30,r20
 4875 1e56 8083      		st Z,r24
 4876               	.L497:
 4877 1e58 CE01      		movw r24,r28
 4878               	/* epilogue start */
 4879 1e5a DF91      		pop r29
 4880 1e5c CF91      		pop r28
 4881 1e5e 1F91      		pop r17
 4882 1e60 0F91      		pop r16
 4883 1e62 FF90      		pop r15
 4884 1e64 0895      		ret
 4885               	.L499:
 4886               	/* #APP */
 4887               	 ;  200 "c:/lab2/source/os_q.c" 1
 4888 1e66 F894      		cli
 4889               	 ;  0 "" 2
 4890               	/* #NOAPP */
 4891 1e68 F980      		ldd r15,Y+1
 4892 1e6a FF20      		tst r15
 4893 1e6c 01F4      		brne .L514
 4894 1e6e 6623      		tst r22
 4895 1e70 01F4      		brne .L515
 4896               	.L502:
 4897 1e72 FF20      		tst r15
 4898 1e74 01F4      		brne .+2
 4899 1e76 00C0      		rjmp .L516
 4900               	/* #APP */
 4901               	 ;  219 "c:/lab2/source/os_q.c" 1
 4902 1e78 7894      		sei
GAS LISTING C:\Users\user\AppData\Local\Temp/ccHVvlcI.s 			page 87


 4903               	 ;  0 "" 2
 4904               	/* #NOAPP */
 4905 1e7a 88E0      		ldi r24,lo8(8)
 4906 1e7c F801      		movw r30,r16
 4907 1e7e 8083      		st Z,r24
 4908 1e80 00C0      		rjmp .L497
 4909               	.L515:
 4910 1e82 6130      		cpi r22,lo8(1)
 4911 1e84 01F0      		breq .L517
 4912               	/* #APP */
 4913               	 ;  242 "c:/lab2/source/os_q.c" 1
 4914 1e86 7894      		sei
 4915               	 ;  0 "" 2
 4916               	/* #NOAPP */
 4917 1e88 87E0      		ldi r24,lo8(7)
 4918 1e8a F801      		movw r30,r16
 4919 1e8c 8083      		st Z,r24
 4920 1e8e 00C0      		rjmp .L497
 4921               	.L514:
 4922 1e90 FF24      		clr r15
 4923 1e92 F394      		inc r15
 4924 1e94 6623      		tst r22
 4925 1e96 01F0      		breq .L502
 4926 1e98 00C0      		rjmp .L515
 4927               	.L513:
 4928 1e9a 84E0      		ldi r24,lo8(4)
 4929 1e9c FA01      		movw r30,r20
 4930 1e9e 8083      		st Z,r24
 4931 1ea0 CE01      		movw r24,r28
 4932 1ea2 DF91      		pop r29
 4933 1ea4 CF91      		pop r28
 4934 1ea6 1F91      		pop r17
 4935 1ea8 0F91      		pop r16
 4936 1eaa FF90      		pop r15
 4937 1eac 0895      		ret
 4938               	.L517:
 4939 1eae FF20      		tst r15
 4940 1eb0 01F0      		breq .L505
 4941               	.L509:
 4942 1eb2 CE01      		movw r24,r28
 4943 1eb4 60E0      		ldi r22,lo8(0)
 4944 1eb6 70E0      		ldi r23,hi8(0)
 4945 1eb8 44E0      		ldi r20,lo8(4)
 4946 1eba 0E94 0000 		call OS_EventTaskRdy
 4947 1ebe 8981      		ldd r24,Y+1
 4948 1ec0 8823      		tst r24
 4949 1ec2 01F4      		brne .L509
 4950               	.L505:
 4951 1ec4 EC81      		ldd r30,Y+4
 4952 1ec6 FD81      		ldd r31,Y+5
 4953 1ec8 8091 0000 		lds r24,OSQFreeList
 4954 1ecc 9091 0000 		lds r25,(OSQFreeList)+1
 4955 1ed0 9183      		std Z+1,r25
 4956 1ed2 8083      		st Z,r24
 4957 1ed4 F093 0000 		sts (OSQFreeList)+1,r31
 4958 1ed8 E093 0000 		sts OSQFreeList,r30
 4959 1edc 1882      		st Y,__zero_reg__
GAS LISTING C:\Users\user\AppData\Local\Temp/ccHVvlcI.s 			page 88


 4960 1ede 8091 0000 		lds r24,OSEventFreeList
 4961 1ee2 9091 0000 		lds r25,(OSEventFreeList)+1
 4962 1ee6 9D83      		std Y+5,r25
 4963 1ee8 8C83      		std Y+4,r24
 4964 1eea D093 0000 		sts (OSEventFreeList)+1,r29
 4965 1eee C093 0000 		sts OSEventFreeList,r28
 4966               	/* #APP */
 4967               	 ;  234 "c:/lab2/source/os_q.c" 1
 4968 1ef2 7894      		sei
 4969               	 ;  0 "" 2
 4970               	/* #NOAPP */
 4971 1ef4 F1E0      		ldi r31,lo8(1)
 4972 1ef6 FF16      		cp r15,r31
 4973 1ef8 01F0      		breq .L518
 4974               	.L507:
 4975 1efa F801      		movw r30,r16
 4976 1efc 1082      		st Z,__zero_reg__
 4977 1efe C0E0      		ldi r28,lo8(0)
 4978 1f00 D0E0      		ldi r29,hi8(0)
 4979 1f02 00C0      		rjmp .L497
 4980               	.L512:
 4981 1f04 8CE8      		ldi r24,lo8(-116)
 4982 1f06 FA01      		movw r30,r20
 4983 1f08 8083      		st Z,r24
 4984 1f0a C0E0      		ldi r28,lo8(0)
 4985 1f0c D0E0      		ldi r29,hi8(0)
 4986 1f0e 00C0      		rjmp .L497
 4987               	.L518:
 4988 1f10 0E94 0000 		call OS_Sched
 4989 1f14 00C0      		rjmp .L507
 4990               	.L516:
 4991 1f16 EC81      		ldd r30,Y+4
 4992 1f18 FD81      		ldd r31,Y+5
 4993 1f1a 8091 0000 		lds r24,OSQFreeList
 4994 1f1e 9091 0000 		lds r25,(OSQFreeList)+1
 4995 1f22 9183      		std Z+1,r25
 4996 1f24 8083      		st Z,r24
 4997 1f26 F093 0000 		sts (OSQFreeList)+1,r31
 4998 1f2a E093 0000 		sts OSQFreeList,r30
 4999 1f2e 1882      		st Y,__zero_reg__
 5000 1f30 8091 0000 		lds r24,OSEventFreeList
 5001 1f34 9091 0000 		lds r25,(OSEventFreeList)+1
 5002 1f38 9D83      		std Y+5,r25
 5003 1f3a 8C83      		std Y+4,r24
 5004 1f3c D093 0000 		sts (OSEventFreeList)+1,r29
 5005 1f40 C093 0000 		sts OSEventFreeList,r28
 5006               	/* #APP */
 5007               	 ;  215 "c:/lab2/source/os_q.c" 1
 5008 1f44 7894      		sei
 5009               	 ;  0 "" 2
 5010               	/* #NOAPP */
 5011 1f46 F801      		movw r30,r16
 5012 1f48 1082      		st Z,__zero_reg__
 5013 1f4a C0E0      		ldi r28,lo8(0)
 5014 1f4c D0E0      		ldi r29,hi8(0)
 5015 1f4e 00C0      		rjmp .L497
 5016               		.size	OSQDel, .-OSQDel
GAS LISTING C:\Users\user\AppData\Local\Temp/ccHVvlcI.s 			page 89


 5017               	.global	OSMutexPost
 5018               		.type	OSMutexPost, @function
 5019               	OSMutexPost:
 5020 1f50 CF93      		push r28
 5021 1f52 DF93      		push r29
 5022               	/* prologue: function */
 5023               	/* frame size = 0 */
 5024 1f54 EC01      		movw r28,r24
 5025 1f56 8091 0000 		lds r24,OSIntNesting
 5026 1f5a 8823      		tst r24
 5027 1f5c 01F4      		brne .L530
 5028 1f5e 2097      		sbiw r28,0
 5029 1f60 01F0      		breq .L531
 5030 1f62 8881      		ld r24,Y
 5031 1f64 8430      		cpi r24,lo8(4)
 5032 1f66 01F0      		breq .L523
 5033 1f68 81E0      		ldi r24,lo8(1)
 5034               	.L521:
 5035               	/* epilogue start */
 5036 1f6a DF91      		pop r29
 5037 1f6c CF91      		pop r28
 5038 1f6e 0895      		ret
 5039               	.L523:
 5040               	/* #APP */
 5041               	 ;  419 "c:/lab2/source/os_mutex.c" 1
 5042 1f70 F894      		cli
 5043               	 ;  0 "" 2
 5044               	/* #NOAPP */
 5045 1f72 3A81      		ldd r19,Y+2
 5046 1f74 4B81      		ldd r20,Y+3
 5047 1f76 A091 0000 		lds r26,OSTCBCur
 5048 1f7a B091 0000 		lds r27,(OSTCBCur)+1
 5049 1f7e 5C96      		adiw r26,28
 5050 1f80 8C91      		ld r24,X
 5051 1f82 5C97      		sbiw r26,28
 5052 1f84 8417      		cp r24,r20
 5053 1f86 01F0      		breq .L524
 5054 1f88 3817      		cp r19,r24
 5055 1f8a 01F4      		brne .+2
 5056 1f8c 00C0      		rjmp .L525
 5057               	/* #APP */
 5058               	 ;  424 "c:/lab2/source/os_mutex.c" 1
 5059 1f8e 7894      		sei
 5060               	 ;  0 "" 2
 5061               	/* #NOAPP */
 5062 1f90 88E7      		ldi r24,lo8(120)
 5063 1f92 DF91      		pop r29
 5064 1f94 CF91      		pop r28
 5065 1f96 0895      		ret
 5066               	.L530:
 5067 1f98 85E0      		ldi r24,lo8(5)
 5068 1f9a DF91      		pop r29
 5069 1f9c CF91      		pop r28
 5070 1f9e 0895      		ret
 5071               	.L531:
 5072 1fa0 84E0      		ldi r24,lo8(4)
 5073 1fa2 00C0      		rjmp .L521
GAS LISTING C:\Users\user\AppData\Local\Temp/ccHVvlcI.s 			page 90


 5074               	.L524:
 5075 1fa4 5E96      		adiw r26,30
 5076 1fa6 EC91      		ld r30,X
 5077 1fa8 5E97      		sbiw r26,30
 5078 1faa F0E0      		ldi r31,lo8(0)
 5079 1fac E050      		subi r30,lo8(-(OSRdyTbl))
 5080 1fae F040      		sbci r31,hi8(-(OSRdyTbl))
 5081 1fb0 5F96      		adiw r26,31
 5082 1fb2 8C91      		ld r24,X
 5083 1fb4 5F97      		sbiw r26,31
 5084 1fb6 8095      		com r24
 5085 1fb8 9081      		ld r25,Z
 5086 1fba 8923      		and r24,r25
 5087 1fbc 8083      		st Z,r24
 5088 1fbe 8823      		tst r24
 5089 1fc0 01F4      		brne .L526
 5090 1fc2 9096      		adiw r26,32
 5091 1fc4 9C91      		ld r25,X
 5092 1fc6 9097      		sbiw r26,32
 5093 1fc8 9095      		com r25
 5094 1fca 8091 0000 		lds r24,OSRdyGrp
 5095 1fce 8923      		and r24,r25
 5096 1fd0 8093 0000 		sts OSRdyGrp,r24
 5097               	.L526:
 5098 1fd4 5C96      		adiw r26,28
 5099 1fd6 3C93      		st X,r19
 5100 1fd8 5C97      		sbiw r26,28
 5101 1fda E32F      		mov r30,r19
 5102 1fdc E695      		lsr r30
 5103 1fde E695      		lsr r30
 5104 1fe0 E695      		lsr r30
 5105 1fe2 5E96      		adiw r26,30
 5106 1fe4 EC93      		st X,r30
 5107 1fe6 5E97      		sbiw r26,30
 5108 1fe8 F0E0      		ldi r31,lo8(0)
 5109 1fea E050      		subi r30,lo8(-(OSMapTbl))
 5110 1fec F040      		sbci r31,hi8(-(OSMapTbl))
 5111 1fee 2081      		ld r18,Z
 5112 1ff0 9096      		adiw r26,32
 5113 1ff2 2C93      		st X,r18
 5114 1ff4 9097      		sbiw r26,32
 5115 1ff6 E32F      		mov r30,r19
 5116 1ff8 E770      		andi r30,lo8(7)
 5117 1ffa 5D96      		adiw r26,29
 5118 1ffc EC93      		st X,r30
 5119 1ffe 5D97      		sbiw r26,29
 5120 2000 F0E0      		ldi r31,lo8(0)
 5121 2002 E050      		subi r30,lo8(-(OSMapTbl))
 5122 2004 F040      		sbci r31,hi8(-(OSMapTbl))
 5123 2006 9081      		ld r25,Z
 5124 2008 5F96      		adiw r26,31
 5125 200a 9C93      		st X,r25
 5126 200c 5F97      		sbiw r26,31
 5127 200e 8091 0000 		lds r24,OSRdyGrp
 5128 2012 822B      		or r24,r18
 5129 2014 8093 0000 		sts OSRdyGrp,r24
 5130 2018 5E96      		adiw r26,30
GAS LISTING C:\Users\user\AppData\Local\Temp/ccHVvlcI.s 			page 91


 5131 201a EC91      		ld r30,X
 5132 201c 5E97      		sbiw r26,30
 5133 201e F0E0      		ldi r31,lo8(0)
 5134 2020 E050      		subi r30,lo8(-(OSRdyTbl))
 5135 2022 F040      		sbci r31,hi8(-(OSRdyTbl))
 5136 2024 8081      		ld r24,Z
 5137 2026 982B      		or r25,r24
 5138 2028 9083      		st Z,r25
 5139 202a E32F      		mov r30,r19
 5140 202c F0E0      		ldi r31,lo8(0)
 5141 202e EE0F      		lsl r30
 5142 2030 FF1F      		rol r31
 5143 2032 E050      		subi r30,lo8(-(OSTCBPrioTbl))
 5144 2034 F040      		sbci r31,hi8(-(OSTCBPrioTbl))
 5145 2036 B183      		std Z+1,r27
 5146 2038 A083      		st Z,r26
 5147               	.L525:
 5148 203a E42F      		mov r30,r20
 5149 203c F0E0      		ldi r31,lo8(0)
 5150 203e EE0F      		lsl r30
 5151 2040 FF1F      		rol r31
 5152 2042 E050      		subi r30,lo8(-(OSTCBPrioTbl))
 5153 2044 F040      		sbci r31,hi8(-(OSTCBPrioTbl))
 5154 2046 81E0      		ldi r24,lo8(1)
 5155 2048 90E0      		ldi r25,hi8(1)
 5156 204a 9183      		std Z+1,r25
 5157 204c 8083      		st Z,r24
 5158 204e 8981      		ldd r24,Y+1
 5159 2050 8823      		tst r24
 5160 2052 01F4      		brne .L532
 5161 2054 8A81      		ldd r24,Y+2
 5162 2056 9B81      		ldd r25,Y+3
 5163 2058 8F6F      		ori r24,lo8(255)
 5164 205a 9B83      		std Y+3,r25
 5165 205c 8A83      		std Y+2,r24
 5166 205e 1D82      		std Y+5,__zero_reg__
 5167 2060 1C82      		std Y+4,__zero_reg__
 5168               	/* #APP */
 5169               	 ;  455 "c:/lab2/source/os_mutex.c" 1
 5170 2062 7894      		sei
 5171               	 ;  0 "" 2
 5172               	/* #NOAPP */
 5173 2064 80E0      		ldi r24,lo8(0)
 5174 2066 00C0      		rjmp .L521
 5175               	.L532:
 5176 2068 CE01      		movw r24,r28
 5177 206a 60E0      		ldi r22,lo8(0)
 5178 206c 70E0      		ldi r23,hi8(0)
 5179 206e 40E1      		ldi r20,lo8(16)
 5180 2070 0E94 0000 		call OS_EventTaskRdy
 5181 2074 E82F      		mov r30,r24
 5182 2076 F0E0      		ldi r31,lo8(0)
 5183 2078 8A81      		ldd r24,Y+2
 5184 207a 9B81      		ldd r25,Y+3
 5185 207c 8070      		andi r24,lo8(-256)
 5186 207e 8E2B      		or r24,r30
 5187 2080 9F2B      		or r25,r31
GAS LISTING C:\Users\user\AppData\Local\Temp/ccHVvlcI.s 			page 92


 5188 2082 9B83      		std Y+3,r25
 5189 2084 8A83      		std Y+2,r24
 5190 2086 EE0F      		lsl r30
 5191 2088 FF1F      		rol r31
 5192 208a E050      		subi r30,lo8(-(OSTCBPrioTbl))
 5193 208c F040      		sbci r31,hi8(-(OSTCBPrioTbl))
 5194 208e 8081      		ld r24,Z
 5195 2090 9181      		ldd r25,Z+1
 5196 2092 9D83      		std Y+5,r25
 5197 2094 8C83      		std Y+4,r24
 5198               	/* #APP */
 5199               	 ;  449 "c:/lab2/source/os_mutex.c" 1
 5200 2096 7894      		sei
 5201               	 ;  0 "" 2
 5202               	/* #NOAPP */
 5203 2098 0E94 0000 		call OS_Sched
 5204 209c 80E0      		ldi r24,lo8(0)
 5205 209e 00C0      		rjmp .L521
 5206               		.size	OSMutexPost, .-OSMutexPost
 5207               	.global	OSMutexPend
 5208               		.type	OSMutexPend, @function
 5209               	OSMutexPend:
 5210 20a0 0F93      		push r16
 5211 20a2 1F93      		push r17
 5212 20a4 CF93      		push r28
 5213 20a6 DF93      		push r29
 5214               	/* prologue: function */
 5215               	/* frame size = 0 */
 5216 20a8 EC01      		movw r28,r24
 5217 20aa 8A01      		movw r16,r20
 5218 20ac 8091 0000 		lds r24,OSIntNesting
 5219 20b0 8823      		tst r24
 5220 20b2 01F4      		brne .L548
 5221 20b4 2097      		sbiw r28,0
 5222 20b6 01F0      		breq .L549
 5223 20b8 8881      		ld r24,Y
 5224 20ba 8430      		cpi r24,lo8(4)
 5225 20bc 01F0      		breq .L537
 5226 20be 81E0      		ldi r24,lo8(1)
 5227 20c0 FA01      		movw r30,r20
 5228 20c2 8083      		st Z,r24
 5229               	.L544:
 5230               	/* epilogue start */
 5231 20c4 DF91      		pop r29
 5232 20c6 CF91      		pop r28
 5233 20c8 1F91      		pop r17
 5234 20ca 0F91      		pop r16
 5235 20cc 0895      		ret
 5236               	.L548:
 5237 20ce 82E0      		ldi r24,lo8(2)
 5238 20d0 FA01      		movw r30,r20
 5239 20d2 8083      		st Z,r24
 5240 20d4 DF91      		pop r29
 5241 20d6 CF91      		pop r28
 5242 20d8 1F91      		pop r17
 5243 20da 0F91      		pop r16
 5244 20dc 0895      		ret
GAS LISTING C:\Users\user\AppData\Local\Temp/ccHVvlcI.s 			page 93


 5245               	.L549:
 5246 20de 84E0      		ldi r24,lo8(4)
 5247 20e0 FA01      		movw r30,r20
 5248 20e2 8083      		st Z,r24
 5249 20e4 00C0      		rjmp .L544
 5250               	.L537:
 5251               	/* #APP */
 5252               	 ;  331 "c:/lab2/source/os_mutex.c" 1
 5253 20e6 F894      		cli
 5254               	 ;  0 "" 2
 5255               	/* #NOAPP */
 5256 20e8 2A81      		ldd r18,Y+2
 5257 20ea 3B81      		ldd r19,Y+3
 5258 20ec 2F3F      		cpi r18,lo8(-1)
 5259 20ee 01F4      		brne .+2
 5260 20f0 00C0      		rjmp .L550
 5261 20f2 432F      		mov r20,r19
 5262 20f4 AC81      		ldd r26,Y+4
 5263 20f6 BD81      		ldd r27,Y+5
 5264 20f8 5C96      		adiw r26,28
 5265 20fa 8C91      		ld r24,X
 5266 20fc 5C97      		sbiw r26,28
 5267 20fe 8317      		cp r24,r19
 5268 2100 01F4      		brne .+2
 5269 2102 00C0      		rjmp .L547
 5270 2104 E091 0000 		lds r30,OSTCBCur
 5271 2108 F091 0000 		lds r31,(OSTCBCur)+1
 5272 210c 848D      		ldd r24,Z+28
 5273 210e 8217      		cp r24,r18
 5274 2110 00F0      		brlo .+2
 5275 2112 00C0      		rjmp .L539
 5276 2114 5E96      		adiw r26,30
 5277 2116 8C91      		ld r24,X
 5278 2118 5E97      		sbiw r26,30
 5279 211a E82F      		mov r30,r24
 5280 211c F0E0      		ldi r31,lo8(0)
 5281 211e E050      		subi r30,lo8(-(OSRdyTbl))
 5282 2120 F040      		sbci r31,hi8(-(OSRdyTbl))
 5283 2122 5081      		ld r21,Z
 5284 2124 5F96      		adiw r26,31
 5285 2126 9C91      		ld r25,X
 5286 2128 5F97      		sbiw r26,31
 5287 212a 852F      		mov r24,r21
 5288 212c 8923      		and r24,r25
 5289 212e 01F4      		brne .+2
 5290 2130 00C0      		rjmp .L540
 5291 2132 892F      		mov r24,r25
 5292 2134 8095      		com r24
 5293 2136 8523      		and r24,r21
 5294 2138 8083      		st Z,r24
 5295 213a 8823      		tst r24
 5296 213c 01F4      		brne .L541
 5297 213e 9096      		adiw r26,32
 5298 2140 9C91      		ld r25,X
 5299 2142 9097      		sbiw r26,32
 5300 2144 9095      		com r25
 5301 2146 8091 0000 		lds r24,OSRdyGrp
GAS LISTING C:\Users\user\AppData\Local\Temp/ccHVvlcI.s 			page 94


 5302 214a 8923      		and r24,r25
 5303 214c 8093 0000 		sts OSRdyGrp,r24
 5304               	.L541:
 5305 2150 5C96      		adiw r26,28
 5306 2152 4C93      		st X,r20
 5307 2154 5C97      		sbiw r26,28
 5308 2156 E42F      		mov r30,r20
 5309 2158 E695      		lsr r30
 5310 215a E695      		lsr r30
 5311 215c E695      		lsr r30
 5312 215e 5E96      		adiw r26,30
 5313 2160 EC93      		st X,r30
 5314 2162 5E97      		sbiw r26,30
 5315 2164 F0E0      		ldi r31,lo8(0)
 5316 2166 E050      		subi r30,lo8(-(OSMapTbl))
 5317 2168 F040      		sbci r31,hi8(-(OSMapTbl))
 5318 216a 2081      		ld r18,Z
 5319 216c 9096      		adiw r26,32
 5320 216e 2C93      		st X,r18
 5321 2170 9097      		sbiw r26,32
 5322 2172 E42F      		mov r30,r20
 5323 2174 E770      		andi r30,lo8(7)
 5324 2176 5D96      		adiw r26,29
 5325 2178 EC93      		st X,r30
 5326 217a 5D97      		sbiw r26,29
 5327 217c F0E0      		ldi r31,lo8(0)
 5328 217e E050      		subi r30,lo8(-(OSMapTbl))
 5329 2180 F040      		sbci r31,hi8(-(OSMapTbl))
 5330 2182 9081      		ld r25,Z
 5331 2184 5F96      		adiw r26,31
 5332 2186 9C93      		st X,r25
 5333 2188 5F97      		sbiw r26,31
 5334 218a 8091 0000 		lds r24,OSRdyGrp
 5335 218e 822B      		or r24,r18
 5336 2190 8093 0000 		sts OSRdyGrp,r24
 5337 2194 5E96      		adiw r26,30
 5338 2196 EC91      		ld r30,X
 5339 2198 5E97      		sbiw r26,30
 5340 219a F0E0      		ldi r31,lo8(0)
 5341 219c E050      		subi r30,lo8(-(OSRdyTbl))
 5342 219e F040      		sbci r31,hi8(-(OSRdyTbl))
 5343 21a0 8081      		ld r24,Z
 5344 21a2 982B      		or r25,r24
 5345 21a4 9083      		st Z,r25
 5346               	.L543:
 5347 21a6 E42F      		mov r30,r20
 5348 21a8 F0E0      		ldi r31,lo8(0)
 5349 21aa EE0F      		lsl r30
 5350 21ac FF1F      		rol r31
 5351 21ae E050      		subi r30,lo8(-(OSTCBPrioTbl))
 5352 21b0 F040      		sbci r31,hi8(-(OSTCBPrioTbl))
 5353 21b2 B183      		std Z+1,r27
 5354 21b4 A083      		st Z,r26
 5355               	.L547:
 5356 21b6 E091 0000 		lds r30,OSTCBCur
 5357 21ba F091 0000 		lds r31,(OSTCBCur)+1
 5358               	.L539:
GAS LISTING C:\Users\user\AppData\Local\Temp/ccHVvlcI.s 			page 95


 5359 21be 838D      		ldd r24,Z+27
 5360 21c0 8061      		ori r24,lo8(16)
 5361 21c2 838F      		std Z+27,r24
 5362 21c4 728F      		std Z+26,r23
 5363 21c6 618F      		std Z+25,r22
 5364 21c8 CE01      		movw r24,r28
 5365 21ca 0E94 0000 		call OS_EventTaskWait
 5366               	/* #APP */
 5367               	 ;  368 "c:/lab2/source/os_mutex.c" 1
 5368 21ce 7894      		sei
 5369               	 ;  0 "" 2
 5370               	/* #NOAPP */
 5371 21d0 0E94 0000 		call OS_Sched
 5372               	/* #APP */
 5373               	 ;  370 "c:/lab2/source/os_mutex.c" 1
 5374 21d4 F894      		cli
 5375               	 ;  0 "" 2
 5376               	/* #NOAPP */
 5377 21d6 E091 0000 		lds r30,OSTCBCur
 5378 21da F091 0000 		lds r31,(OSTCBCur)+1
 5379 21de 838D      		ldd r24,Z+27
 5380 21e0 84FD      		sbrc r24,4
 5381 21e2 00C0      		rjmp .L551
 5382 21e4 138A      		std Z+19,__zero_reg__
 5383 21e6 128A      		std Z+18,__zero_reg__
 5384               	/* #APP */
 5385               	 ;  378 "c:/lab2/source/os_mutex.c" 1
 5386 21e8 7894      		sei
 5387               	 ;  0 "" 2
 5388               	/* #NOAPP */
 5389 21ea F801      		movw r30,r16
 5390 21ec 1082      		st Z,__zero_reg__
 5391 21ee 00C0      		rjmp .L544
 5392               	.L550:
 5393 21f0 E091 0000 		lds r30,OSTCBCur
 5394 21f4 F091 0000 		lds r31,(OSTCBCur)+1
 5395 21f8 848D      		ldd r24,Z+28
 5396 21fa 90E0      		ldi r25,lo8(0)
 5397 21fc 2070      		andi r18,lo8(-256)
 5398 21fe 822B      		or r24,r18
 5399 2200 932B      		or r25,r19
 5400 2202 9B83      		std Y+3,r25
 5401 2204 8A83      		std Y+2,r24
 5402 2206 FD83      		std Y+5,r31
 5403 2208 EC83      		std Y+4,r30
 5404               	/* #APP */
 5405               	 ;  336 "c:/lab2/source/os_mutex.c" 1
 5406 220a 7894      		sei
 5407               	 ;  0 "" 2
 5408               	/* #NOAPP */
 5409 220c FA01      		movw r30,r20
 5410 220e 1082      		st Z,__zero_reg__
 5411 2210 00C0      		rjmp .L544
 5412               	.L551:
 5413 2212 CE01      		movw r24,r28
 5414 2214 0E94 0000 		call OS_EventTO
 5415               	/* #APP */
GAS LISTING C:\Users\user\AppData\Local\Temp/ccHVvlcI.s 			page 96


 5416               	 ;  373 "c:/lab2/source/os_mutex.c" 1
 5417 2218 7894      		sei
 5418               	 ;  0 "" 2
 5419               	/* #NOAPP */
 5420 221a 8AE0      		ldi r24,lo8(10)
 5421 221c F801      		movw r30,r16
 5422 221e 8083      		st Z,r24
 5423 2220 00C0      		rjmp .L544
 5424               	.L540:
 5425 2222 5C96      		adiw r26,28
 5426 2224 3C93      		st X,r19
 5427 2226 5C97      		sbiw r26,28
 5428 2228 E32F      		mov r30,r19
 5429 222a E695      		lsr r30
 5430 222c E695      		lsr r30
 5431 222e E695      		lsr r30
 5432 2230 5E96      		adiw r26,30
 5433 2232 EC93      		st X,r30
 5434 2234 5E97      		sbiw r26,30
 5435 2236 F0E0      		ldi r31,lo8(0)
 5436 2238 E050      		subi r30,lo8(-(OSMapTbl))
 5437 223a F040      		sbci r31,hi8(-(OSMapTbl))
 5438 223c 8081      		ld r24,Z
 5439 223e 9096      		adiw r26,32
 5440 2240 8C93      		st X,r24
 5441 2242 9097      		sbiw r26,32
 5442 2244 E32F      		mov r30,r19
 5443 2246 E770      		andi r30,lo8(7)
 5444 2248 5D96      		adiw r26,29
 5445 224a EC93      		st X,r30
 5446 224c 5D97      		sbiw r26,29
 5447 224e F0E0      		ldi r31,lo8(0)
 5448 2250 E050      		subi r30,lo8(-(OSMapTbl))
 5449 2252 F040      		sbci r31,hi8(-(OSMapTbl))
 5450 2254 8081      		ld r24,Z
 5451 2256 5F96      		adiw r26,31
 5452 2258 8C93      		st X,r24
 5453 225a 5F97      		sbiw r26,31
 5454 225c 00C0      		rjmp .L543
 5455               		.size	OSMutexPend, .-OSMutexPend
 5456               	.global	OSMutexDel
 5457               		.type	OSMutexDel, @function
 5458               	OSMutexDel:
 5459 225e FF92      		push r15
 5460 2260 0F93      		push r16
 5461 2262 1F93      		push r17
 5462 2264 CF93      		push r28
 5463 2266 DF93      		push r29
 5464               	/* prologue: function */
 5465               	/* frame size = 0 */
 5466 2268 EC01      		movw r28,r24
 5467 226a 8A01      		movw r16,r20
 5468 226c 8091 0000 		lds r24,OSIntNesting
 5469 2270 8823      		tst r24
 5470 2272 01F4      		brne .L569
 5471 2274 2097      		sbiw r28,0
 5472 2276 01F4      		brne .+2
GAS LISTING C:\Users\user\AppData\Local\Temp/ccHVvlcI.s 			page 97


 5473 2278 00C0      		rjmp .L570
 5474 227a 8881      		ld r24,Y
 5475 227c 8430      		cpi r24,lo8(4)
 5476 227e 01F0      		breq .L556
 5477 2280 81E0      		ldi r24,lo8(1)
 5478 2282 FA01      		movw r30,r20
 5479 2284 8083      		st Z,r24
 5480               	.L554:
 5481 2286 CE01      		movw r24,r28
 5482               	/* epilogue start */
 5483 2288 DF91      		pop r29
 5484 228a CF91      		pop r28
 5485 228c 1F91      		pop r17
 5486 228e 0F91      		pop r16
 5487 2290 FF90      		pop r15
 5488 2292 0895      		ret
 5489               	.L569:
 5490 2294 8CE8      		ldi r24,lo8(-116)
 5491 2296 FA01      		movw r30,r20
 5492 2298 8083      		st Z,r24
 5493 229a CE01      		movw r24,r28
 5494 229c DF91      		pop r29
 5495 229e CF91      		pop r28
 5496 22a0 1F91      		pop r17
 5497 22a2 0F91      		pop r16
 5498 22a4 FF90      		pop r15
 5499 22a6 0895      		ret
 5500               	.L556:
 5501               	/* #APP */
 5502               	 ;  229 "c:/lab2/source/os_mutex.c" 1
 5503 22a8 F894      		cli
 5504               	 ;  0 "" 2
 5505               	/* #NOAPP */
 5506 22aa F980      		ldd r15,Y+1
 5507 22ac FF20      		tst r15
 5508 22ae 01F0      		breq .L557
 5509 22b0 FF24      		clr r15
 5510 22b2 F394      		inc r15
 5511               	.L557:
 5512 22b4 6623      		tst r22
 5513 22b6 01F4      		brne .L571
 5514 22b8 FF20      		tst r15
 5515 22ba 01F0      		breq .L572
 5516               	/* #APP */
 5517               	 ;  247 "c:/lab2/source/os_mutex.c" 1
 5518 22bc 7894      		sei
 5519               	 ;  0 "" 2
 5520               	/* #NOAPP */
 5521 22be 88E0      		ldi r24,lo8(8)
 5522 22c0 F801      		movw r30,r16
 5523 22c2 8083      		st Z,r24
 5524 22c4 00C0      		rjmp .L554
 5525               	.L571:
 5526 22c6 6130      		cpi r22,lo8(1)
 5527 22c8 01F0      		breq .L573
 5528               	/* #APP */
 5529               	 ;  269 "c:/lab2/source/os_mutex.c" 1
GAS LISTING C:\Users\user\AppData\Local\Temp/ccHVvlcI.s 			page 98


 5530 22ca 7894      		sei
 5531               	 ;  0 "" 2
 5532               	/* #NOAPP */
 5533 22cc 87E0      		ldi r24,lo8(7)
 5534 22ce F801      		movw r30,r16
 5535 22d0 8083      		st Z,r24
 5536 22d2 00C0      		rjmp .L554
 5537               	.L573:
 5538 22d4 FF20      		tst r15
 5539 22d6 01F0      		breq .L562
 5540               	.L566:
 5541 22d8 CE01      		movw r24,r28
 5542 22da 60E0      		ldi r22,lo8(0)
 5543 22dc 70E0      		ldi r23,hi8(0)
 5544 22de 40E1      		ldi r20,lo8(16)
 5545 22e0 0E94 0000 		call OS_EventTaskRdy
 5546 22e4 8981      		ldd r24,Y+1
 5547 22e6 8823      		tst r24
 5548 22e8 01F4      		brne .L566
 5549               	.L562:
 5550 22ea EB81      		ldd r30,Y+3
 5551 22ec F0E0      		ldi r31,lo8(0)
 5552 22ee EE0F      		lsl r30
 5553 22f0 FF1F      		rol r31
 5554 22f2 E050      		subi r30,lo8(-(OSTCBPrioTbl))
 5555 22f4 F040      		sbci r31,hi8(-(OSTCBPrioTbl))
 5556 22f6 1182      		std Z+1,__zero_reg__
 5557 22f8 1082      		st Z,__zero_reg__
 5558 22fa 1882      		st Y,__zero_reg__
 5559 22fc 8091 0000 		lds r24,OSEventFreeList
 5560 2300 9091 0000 		lds r25,(OSEventFreeList)+1
 5561 2304 9D83      		std Y+5,r25
 5562 2306 8C83      		std Y+4,r24
 5563 2308 D093 0000 		sts (OSEventFreeList)+1,r29
 5564 230c C093 0000 		sts OSEventFreeList,r28
 5565               	/* #APP */
 5566               	 ;  261 "c:/lab2/source/os_mutex.c" 1
 5567 2310 7894      		sei
 5568               	 ;  0 "" 2
 5569               	/* #NOAPP */
 5570 2312 F1E0      		ldi r31,lo8(1)
 5571 2314 FF16      		cp r15,r31
 5572 2316 01F0      		breq .L574
 5573               	.L564:
 5574 2318 F801      		movw r30,r16
 5575 231a 1082      		st Z,__zero_reg__
 5576 231c C0E0      		ldi r28,lo8(0)
 5577 231e D0E0      		ldi r29,hi8(0)
 5578 2320 00C0      		rjmp .L554
 5579               	.L574:
 5580 2322 0E94 0000 		call OS_Sched
 5581 2326 00C0      		rjmp .L564
 5582               	.L570:
 5583 2328 84E0      		ldi r24,lo8(4)
 5584 232a FA01      		movw r30,r20
 5585 232c 8083      		st Z,r24
 5586 232e 00C0      		rjmp .L554
GAS LISTING C:\Users\user\AppData\Local\Temp/ccHVvlcI.s 			page 99


 5587               	.L572:
 5588 2330 EB81      		ldd r30,Y+3
 5589 2332 F0E0      		ldi r31,lo8(0)
 5590 2334 EE0F      		lsl r30
 5591 2336 FF1F      		rol r31
 5592 2338 E050      		subi r30,lo8(-(OSTCBPrioTbl))
 5593 233a F040      		sbci r31,hi8(-(OSTCBPrioTbl))
 5594 233c 1182      		std Z+1,__zero_reg__
 5595 233e 1082      		st Z,__zero_reg__
 5596 2340 1882      		st Y,__zero_reg__
 5597 2342 8091 0000 		lds r24,OSEventFreeList
 5598 2346 9091 0000 		lds r25,(OSEventFreeList)+1
 5599 234a 9D83      		std Y+5,r25
 5600 234c 8C83      		std Y+4,r24
 5601 234e D093 0000 		sts (OSEventFreeList)+1,r29
 5602 2352 C093 0000 		sts OSEventFreeList,r28
 5603               	/* #APP */
 5604               	 ;  243 "c:/lab2/source/os_mutex.c" 1
 5605 2356 7894      		sei
 5606               	 ;  0 "" 2
 5607               	/* #NOAPP */
 5608 2358 F801      		movw r30,r16
 5609 235a 1082      		st Z,__zero_reg__
 5610 235c C0E0      		ldi r28,lo8(0)
 5611 235e D0E0      		ldi r29,hi8(0)
 5612 2360 00C0      		rjmp .L554
 5613               		.size	OSMutexDel, .-OSMutexDel
 5614               	.global	OSMboxPostOpt
 5615               		.type	OSMboxPostOpt, @function
 5616               	OSMboxPostOpt:
 5617 2362 0F93      		push r16
 5618 2364 1F93      		push r17
 5619 2366 CF93      		push r28
 5620 2368 DF93      		push r29
 5621               	/* prologue: function */
 5622               	/* frame size = 0 */
 5623 236a EC01      		movw r28,r24
 5624 236c 8B01      		movw r16,r22
 5625 236e 0097      		sbiw r24,0
 5626 2370 01F0      		breq .L588
 5627 2372 6115      		cp r22,__zero_reg__
 5628 2374 7105      		cpc r23,__zero_reg__
 5629 2376 01F0      		breq .L589
 5630 2378 8881      		ld r24,Y
 5631 237a 8130      		cpi r24,lo8(1)
 5632 237c 01F0      		breq .L579
 5633 237e 81E0      		ldi r24,lo8(1)
 5634               	.L577:
 5635               	/* epilogue start */
 5636 2380 DF91      		pop r29
 5637 2382 CF91      		pop r28
 5638 2384 1F91      		pop r17
 5639 2386 0F91      		pop r16
 5640 2388 0895      		ret
 5641               	.L579:
 5642               	/* #APP */
 5643               	 ;  393 "c:/lab2/source/os_mbox.c" 1
GAS LISTING C:\Users\user\AppData\Local\Temp/ccHVvlcI.s 			page 100


 5644 238a F894      		cli
 5645               	 ;  0 "" 2
 5646               	/* #NOAPP */
 5647 238c 8981      		ldd r24,Y+1
 5648 238e 8823      		tst r24
 5649 2390 01F0      		breq .L580
 5650 2392 40FF      		sbrs r20,0
 5651 2394 00C0      		rjmp .L581
 5652               	.L586:
 5653 2396 CE01      		movw r24,r28
 5654 2398 B801      		movw r22,r16
 5655 239a 42E0      		ldi r20,lo8(2)
 5656 239c 0E94 0000 		call OS_EventTaskRdy
 5657 23a0 8981      		ldd r24,Y+1
 5658 23a2 8823      		tst r24
 5659 23a4 01F4      		brne .L586
 5660               	.L583:
 5661               	/* #APP */
 5662               	 ;  402 "c:/lab2/source/os_mbox.c" 1
 5663 23a6 7894      		sei
 5664               	 ;  0 "" 2
 5665               	/* #NOAPP */
 5666 23a8 0E94 0000 		call OS_Sched
 5667 23ac 80E0      		ldi r24,lo8(0)
 5668 23ae DF91      		pop r29
 5669 23b0 CF91      		pop r28
 5670 23b2 1F91      		pop r17
 5671 23b4 0F91      		pop r16
 5672 23b6 0895      		ret
 5673               	.L580:
 5674 23b8 8C81      		ldd r24,Y+4
 5675 23ba 9D81      		ldd r25,Y+5
 5676 23bc 892B      		or r24,r25
 5677 23be 01F0      		breq .L584
 5678               	/* #APP */
 5679               	 ;  407 "c:/lab2/source/os_mbox.c" 1
 5680 23c0 7894      		sei
 5681               	 ;  0 "" 2
 5682               	/* #NOAPP */
 5683 23c2 84E1      		ldi r24,lo8(20)
 5684 23c4 DF91      		pop r29
 5685 23c6 CF91      		pop r28
 5686 23c8 1F91      		pop r17
 5687 23ca 0F91      		pop r16
 5688 23cc 0895      		ret
 5689               	.L589:
 5690 23ce 83E0      		ldi r24,lo8(3)
 5691 23d0 DF91      		pop r29
 5692 23d2 CF91      		pop r28
 5693 23d4 1F91      		pop r17
 5694 23d6 0F91      		pop r16
 5695 23d8 0895      		ret
 5696               	.L588:
 5697 23da 84E0      		ldi r24,lo8(4)
 5698 23dc 00C0      		rjmp .L577
 5699               	.L581:
 5700 23de CE01      		movw r24,r28
GAS LISTING C:\Users\user\AppData\Local\Temp/ccHVvlcI.s 			page 101


 5701 23e0 42E0      		ldi r20,lo8(2)
 5702 23e2 0E94 0000 		call OS_EventTaskRdy
 5703 23e6 00C0      		rjmp .L583
 5704               	.L584:
 5705 23e8 7D83      		std Y+5,r23
 5706 23ea 6C83      		std Y+4,r22
 5707               	/* #APP */
 5708               	 ;  411 "c:/lab2/source/os_mbox.c" 1
 5709 23ec 7894      		sei
 5710               	 ;  0 "" 2
 5711               	/* #NOAPP */
 5712 23ee 80E0      		ldi r24,lo8(0)
 5713 23f0 00C0      		rjmp .L577
 5714               		.size	OSMboxPostOpt, .-OSMboxPostOpt
 5715               	.global	OSMboxPost
 5716               		.type	OSMboxPost, @function
 5717               	OSMboxPost:
 5718               	/* prologue: function */
 5719               	/* frame size = 0 */
 5720 23f2 FC01      		movw r30,r24
 5721 23f4 0097      		sbiw r24,0
 5722 23f6 01F0      		breq .L598
 5723 23f8 6115      		cp r22,__zero_reg__
 5724 23fa 7105      		cpc r23,__zero_reg__
 5725 23fc 01F0      		breq .L599
 5726 23fe 8081      		ld r24,Z
 5727 2400 8130      		cpi r24,lo8(1)
 5728 2402 01F0      		breq .L594
 5729 2404 81E0      		ldi r24,lo8(1)
 5730 2406 0895      		ret
 5731               	.L594:
 5732               	/* #APP */
 5733               	 ;  328 "c:/lab2/source/os_mbox.c" 1
 5734 2408 F894      		cli
 5735               	 ;  0 "" 2
 5736               	/* #NOAPP */
 5737 240a 8181      		ldd r24,Z+1
 5738 240c 8823      		tst r24
 5739 240e 01F4      		brne .L600
 5740 2410 8481      		ldd r24,Z+4
 5741 2412 9581      		ldd r25,Z+5
 5742 2414 892B      		or r24,r25
 5743 2416 01F0      		breq .L596
 5744               	/* #APP */
 5745               	 ;  336 "c:/lab2/source/os_mbox.c" 1
 5746 2418 7894      		sei
 5747               	 ;  0 "" 2
 5748               	/* #NOAPP */
 5749 241a 84E1      		ldi r24,lo8(20)
 5750 241c 0895      		ret
 5751               	.L600:
 5752 241e CF01      		movw r24,r30
 5753 2420 42E0      		ldi r20,lo8(2)
 5754 2422 0E94 0000 		call OS_EventTaskRdy
 5755               	/* #APP */
 5756               	 ;  331 "c:/lab2/source/os_mbox.c" 1
 5757 2426 7894      		sei
GAS LISTING C:\Users\user\AppData\Local\Temp/ccHVvlcI.s 			page 102


 5758               	 ;  0 "" 2
 5759               	/* #NOAPP */
 5760 2428 0E94 0000 		call OS_Sched
 5761 242c 80E0      		ldi r24,lo8(0)
 5762 242e 0895      		ret
 5763               	.L599:
 5764 2430 83E0      		ldi r24,lo8(3)
 5765 2432 0895      		ret
 5766               	.L598:
 5767 2434 84E0      		ldi r24,lo8(4)
 5768 2436 0895      		ret
 5769               	.L596:
 5770 2438 7583      		std Z+5,r23
 5771 243a 6483      		std Z+4,r22
 5772               	/* #APP */
 5773               	 ;  340 "c:/lab2/source/os_mbox.c" 1
 5774 243c 7894      		sei
 5775               	 ;  0 "" 2
 5776               	/* #NOAPP */
 5777 243e 80E0      		ldi r24,lo8(0)
 5778 2440 0895      		ret
 5779               		.size	OSMboxPost, .-OSMboxPost
 5780               	.global	OSMboxPend
 5781               		.type	OSMboxPend, @function
 5782               	OSMboxPend:
 5783 2442 EF92      		push r14
 5784 2444 FF92      		push r15
 5785 2446 0F93      		push r16
 5786 2448 1F93      		push r17
 5787 244a CF93      		push r28
 5788 244c DF93      		push r29
 5789               	/* prologue: function */
 5790               	/* frame size = 0 */
 5791 244e 8C01      		movw r16,r24
 5792 2450 7A01      		movw r14,r20
 5793 2452 8091 0000 		lds r24,OSIntNesting
 5794 2456 8823      		tst r24
 5795 2458 01F0      		breq .+2
 5796 245a 00C0      		rjmp .L609
 5797 245c 0115      		cp r16,__zero_reg__
 5798 245e 1105      		cpc r17,__zero_reg__
 5799 2460 01F4      		brne .+2
 5800 2462 00C0      		rjmp .L610
 5801 2464 F801      		movw r30,r16
 5802 2466 8081      		ld r24,Z
 5803 2468 8130      		cpi r24,lo8(1)
 5804 246a 01F4      		brne .L611
 5805               	/* #APP */
 5806               	 ;  260 "c:/lab2/source/os_mbox.c" 1
 5807 246c F894      		cli
 5808               	 ;  0 "" 2
 5809               	/* #NOAPP */
 5810 246e F801      		movw r30,r16
 5811 2470 C481      		ldd r28,Z+4
 5812 2472 D581      		ldd r29,Z+5
 5813 2474 2097      		sbiw r28,0
 5814 2476 01F0      		breq .L606
GAS LISTING C:\Users\user\AppData\Local\Temp/ccHVvlcI.s 			page 103


 5815 2478 1582      		std Z+5,__zero_reg__
 5816 247a 1482      		std Z+4,__zero_reg__
 5817               	/* #APP */
 5818               	 ;  264 "c:/lab2/source/os_mbox.c" 1
 5819 247c 7894      		sei
 5820               	 ;  0 "" 2
 5821               	/* #NOAPP */
 5822 247e FA01      		movw r30,r20
 5823 2480 1082      		st Z,__zero_reg__
 5824               	.L603:
 5825 2482 CE01      		movw r24,r28
 5826               	/* epilogue start */
 5827 2484 DF91      		pop r29
 5828 2486 CF91      		pop r28
 5829 2488 1F91      		pop r17
 5830 248a 0F91      		pop r16
 5831 248c FF90      		pop r15
 5832 248e EF90      		pop r14
 5833 2490 0895      		ret
 5834               	.L611:
 5835 2492 81E0      		ldi r24,lo8(1)
 5836 2494 FA01      		movw r30,r20
 5837 2496 8083      		st Z,r24
 5838 2498 C0E0      		ldi r28,lo8(0)
 5839 249a D0E0      		ldi r29,hi8(0)
 5840 249c 00C0      		rjmp .L603
 5841               	.L606:
 5842 249e E091 0000 		lds r30,OSTCBCur
 5843 24a2 F091 0000 		lds r31,(OSTCBCur)+1
 5844 24a6 838D      		ldd r24,Z+27
 5845 24a8 8260      		ori r24,lo8(2)
 5846 24aa 838F      		std Z+27,r24
 5847 24ac 728F      		std Z+26,r23
 5848 24ae 618F      		std Z+25,r22
 5849 24b0 C801      		movw r24,r16
 5850 24b2 0E94 0000 		call OS_EventTaskWait
 5851               	/* #APP */
 5852               	 ;  271 "c:/lab2/source/os_mbox.c" 1
 5853 24b6 7894      		sei
 5854               	 ;  0 "" 2
 5855               	/* #NOAPP */
 5856 24b8 0E94 0000 		call OS_Sched
 5857               	/* #APP */
 5858               	 ;  273 "c:/lab2/source/os_mbox.c" 1
 5859 24bc F894      		cli
 5860               	 ;  0 "" 2
 5861               	/* #NOAPP */
 5862 24be E091 0000 		lds r30,OSTCBCur
 5863 24c2 F091 0000 		lds r31,(OSTCBCur)+1
 5864 24c6 C489      		ldd r28,Z+20
 5865 24c8 D589      		ldd r29,Z+21
 5866 24ca 2097      		sbiw r28,0
 5867 24cc 01F0      		breq .L607
 5868 24ce 158A      		std Z+21,__zero_reg__
 5869 24d0 148A      		std Z+20,__zero_reg__
 5870 24d2 138E      		std Z+27,__zero_reg__
 5871 24d4 138A      		std Z+19,__zero_reg__
GAS LISTING C:\Users\user\AppData\Local\Temp/ccHVvlcI.s 			page 104


 5872 24d6 128A      		std Z+18,__zero_reg__
 5873               	/* #APP */
 5874               	 ;  279 "c:/lab2/source/os_mbox.c" 1
 5875 24d8 7894      		sei
 5876               	 ;  0 "" 2
 5877               	/* #NOAPP */
 5878 24da F701      		movw r30,r14
 5879 24dc 1082      		st Z,__zero_reg__
 5880 24de 00C0      		rjmp .L603
 5881               	.L609:
 5882 24e0 82E0      		ldi r24,lo8(2)
 5883 24e2 FA01      		movw r30,r20
 5884 24e4 8083      		st Z,r24
 5885 24e6 C0E0      		ldi r28,lo8(0)
 5886 24e8 D0E0      		ldi r29,hi8(0)
 5887 24ea 00C0      		rjmp .L603
 5888               	.L610:
 5889 24ec 84E0      		ldi r24,lo8(4)
 5890 24ee FA01      		movw r30,r20
 5891 24f0 8083      		st Z,r24
 5892 24f2 C0E0      		ldi r28,lo8(0)
 5893 24f4 D0E0      		ldi r29,hi8(0)
 5894 24f6 00C0      		rjmp .L603
 5895               	.L607:
 5896 24f8 C801      		movw r24,r16
 5897 24fa 0E94 0000 		call OS_EventTO
 5898               	/* #APP */
 5899               	 ;  284 "c:/lab2/source/os_mbox.c" 1
 5900 24fe 7894      		sei
 5901               	 ;  0 "" 2
 5902               	/* #NOAPP */
 5903 2500 8AE0      		ldi r24,lo8(10)
 5904 2502 F701      		movw r30,r14
 5905 2504 8083      		st Z,r24
 5906 2506 00C0      		rjmp .L603
 5907               		.size	OSMboxPend, .-OSMboxPend
 5908               	.global	OSMboxDel
 5909               		.type	OSMboxDel, @function
 5910               	OSMboxDel:
 5911 2508 FF92      		push r15
 5912 250a 0F93      		push r16
 5913 250c 1F93      		push r17
 5914 250e CF93      		push r28
 5915 2510 DF93      		push r29
 5916               	/* prologue: function */
 5917               	/* frame size = 0 */
 5918 2512 EC01      		movw r28,r24
 5919 2514 8A01      		movw r16,r20
 5920 2516 8091 0000 		lds r24,OSIntNesting
 5921 251a 8823      		tst r24
 5922 251c 01F4      		brne .L629
 5923 251e 2097      		sbiw r28,0
 5924 2520 01F0      		breq .L630
 5925 2522 8881      		ld r24,Y
 5926 2524 8130      		cpi r24,lo8(1)
 5927 2526 01F0      		breq .L616
 5928 2528 81E0      		ldi r24,lo8(1)
GAS LISTING C:\Users\user\AppData\Local\Temp/ccHVvlcI.s 			page 105


 5929 252a FA01      		movw r30,r20
 5930 252c 8083      		st Z,r24
 5931               	.L614:
 5932 252e CE01      		movw r24,r28
 5933               	/* epilogue start */
 5934 2530 DF91      		pop r29
 5935 2532 CF91      		pop r28
 5936 2534 1F91      		pop r17
 5937 2536 0F91      		pop r16
 5938 2538 FF90      		pop r15
 5939 253a 0895      		ret
 5940               	.L629:
 5941 253c 8CE8      		ldi r24,lo8(-116)
 5942 253e FA01      		movw r30,r20
 5943 2540 8083      		st Z,r24
 5944 2542 CE01      		movw r24,r28
 5945 2544 DF91      		pop r29
 5946 2546 CF91      		pop r28
 5947 2548 1F91      		pop r17
 5948 254a 0F91      		pop r16
 5949 254c FF90      		pop r15
 5950 254e 0895      		ret
 5951               	.L630:
 5952 2550 84E0      		ldi r24,lo8(4)
 5953 2552 FA01      		movw r30,r20
 5954 2554 8083      		st Z,r24
 5955 2556 00C0      		rjmp .L614
 5956               	.L616:
 5957               	/* #APP */
 5958               	 ;  163 "c:/lab2/source/os_mbox.c" 1
 5959 2558 F894      		cli
 5960               	 ;  0 "" 2
 5961               	/* #NOAPP */
 5962 255a F980      		ldd r15,Y+1
 5963 255c FF20      		tst r15
 5964 255e 01F0      		breq .L617
 5965 2560 FF24      		clr r15
 5966 2562 F394      		inc r15
 5967               	.L617:
 5968 2564 6623      		tst r22
 5969 2566 01F4      		brne .L631
 5970 2568 FF20      		tst r15
 5971 256a 01F0      		breq .L632
 5972               	/* #APP */
 5973               	 ;  179 "c:/lab2/source/os_mbox.c" 1
 5974 256c 7894      		sei
 5975               	 ;  0 "" 2
 5976               	/* #NOAPP */
 5977 256e 88E0      		ldi r24,lo8(8)
 5978 2570 F801      		movw r30,r16
 5979 2572 8083      		st Z,r24
 5980 2574 00C0      		rjmp .L614
 5981               	.L631:
 5982 2576 6130      		cpi r22,lo8(1)
 5983 2578 01F0      		breq .L633
 5984               	/* #APP */
 5985               	 ;  199 "c:/lab2/source/os_mbox.c" 1
GAS LISTING C:\Users\user\AppData\Local\Temp/ccHVvlcI.s 			page 106


 5986 257a 7894      		sei
 5987               	 ;  0 "" 2
 5988               	/* #NOAPP */
 5989 257c 87E0      		ldi r24,lo8(7)
 5990 257e F801      		movw r30,r16
 5991 2580 8083      		st Z,r24
 5992 2582 00C0      		rjmp .L614
 5993               	.L633:
 5994 2584 FF20      		tst r15
 5995 2586 01F0      		breq .L622
 5996               	.L626:
 5997 2588 CE01      		movw r24,r28
 5998 258a 60E0      		ldi r22,lo8(0)
 5999 258c 70E0      		ldi r23,hi8(0)
 6000 258e 42E0      		ldi r20,lo8(2)
 6001 2590 0E94 0000 		call OS_EventTaskRdy
 6002 2594 8981      		ldd r24,Y+1
 6003 2596 8823      		tst r24
 6004 2598 01F4      		brne .L626
 6005               	.L622:
 6006 259a 1882      		st Y,__zero_reg__
 6007 259c 8091 0000 		lds r24,OSEventFreeList
 6008 25a0 9091 0000 		lds r25,(OSEventFreeList)+1
 6009 25a4 9D83      		std Y+5,r25
 6010 25a6 8C83      		std Y+4,r24
 6011 25a8 D093 0000 		sts (OSEventFreeList)+1,r29
 6012 25ac C093 0000 		sts OSEventFreeList,r28
 6013               	/* #APP */
 6014               	 ;  191 "c:/lab2/source/os_mbox.c" 1
 6015 25b0 7894      		sei
 6016               	 ;  0 "" 2
 6017               	/* #NOAPP */
 6018 25b2 F1E0      		ldi r31,lo8(1)
 6019 25b4 FF16      		cp r15,r31
 6020 25b6 01F0      		breq .L634
 6021               	.L624:
 6022 25b8 F801      		movw r30,r16
 6023 25ba 1082      		st Z,__zero_reg__
 6024 25bc C0E0      		ldi r28,lo8(0)
 6025 25be D0E0      		ldi r29,hi8(0)
 6026 25c0 00C0      		rjmp .L614
 6027               	.L634:
 6028 25c2 0E94 0000 		call OS_Sched
 6029 25c6 00C0      		rjmp .L624
 6030               	.L632:
 6031 25c8 1882      		st Y,__zero_reg__
 6032 25ca 8091 0000 		lds r24,OSEventFreeList
 6033 25ce 9091 0000 		lds r25,(OSEventFreeList)+1
 6034 25d2 9D83      		std Y+5,r25
 6035 25d4 8C83      		std Y+4,r24
 6036 25d6 D093 0000 		sts (OSEventFreeList)+1,r29
 6037 25da C093 0000 		sts OSEventFreeList,r28
 6038               	/* #APP */
 6039               	 ;  175 "c:/lab2/source/os_mbox.c" 1
 6040 25de 7894      		sei
 6041               	 ;  0 "" 2
 6042               	/* #NOAPP */
GAS LISTING C:\Users\user\AppData\Local\Temp/ccHVvlcI.s 			page 107


 6043 25e0 F801      		movw r30,r16
 6044 25e2 1082      		st Z,__zero_reg__
 6045 25e4 C0E0      		ldi r28,lo8(0)
 6046 25e6 D0E0      		ldi r29,hi8(0)
 6047 25e8 00C0      		rjmp .L614
 6048               		.size	OSMboxDel, .-OSMboxDel
 6049               	.global	OSFlagPost
 6050               		.type	OSFlagPost, @function
 6051               	OSFlagPost:
 6052 25ea CF92      		push r12
 6053 25ec DF92      		push r13
 6054 25ee EF92      		push r14
 6055 25f0 FF92      		push r15
 6056 25f2 0F93      		push r16
 6057 25f4 1F93      		push r17
 6058 25f6 DF93      		push r29
 6059 25f8 CF93      		push r28
 6060 25fa 0F92      		push __tmp_reg__
 6061 25fc CDB7      		in r28,__SP_L__
 6062 25fe DEB7      		in r29,__SP_H__
 6063               	/* prologue: function */
 6064               	/* frame size = 1 */
 6065 2600 8C01      		movw r16,r24
 6066 2602 7901      		movw r14,r18
 6067 2604 0097      		sbiw r24,0
 6068 2606 01F4      		brne .+2
 6069 2608 00C0      		rjmp .L660
 6070 260a FC01      		movw r30,r24
 6071 260c 8081      		ld r24,Z
 6072 260e 8530      		cpi r24,lo8(5)
 6073 2610 01F0      		breq .L638
 6074 2612 81E0      		ldi r24,lo8(1)
 6075 2614 F901      		movw r30,r18
 6076 2616 8083      		st Z,r24
 6077 2618 80E0      		ldi r24,lo8(0)
 6078               	.L637:
 6079               	/* epilogue start */
 6080 261a 0F90      		pop __tmp_reg__
 6081 261c CF91      		pop r28
 6082 261e DF91      		pop r29
 6083 2620 1F91      		pop r17
 6084 2622 0F91      		pop r16
 6085 2624 FF90      		pop r15
 6086 2626 EF90      		pop r14
 6087 2628 DF90      		pop r13
 6088 262a CF90      		pop r12
 6089 262c 0895      		ret
 6090               	.L638:
 6091               	/* #APP */
 6092               	 ;  577 "c:/lab2/source/os_flag.c" 1
 6093 262e F894      		cli
 6094               	 ;  0 "" 2
 6095               	/* #NOAPP */
 6096 2630 4423      		tst r20
 6097 2632 01F0      		breq .+2
 6098 2634 00C0      		rjmp .L661
 6099 2636 6095      		com r22
GAS LISTING C:\Users\user\AppData\Local\Temp/ccHVvlcI.s 			page 108


 6100 2638 F801      		movw r30,r16
 6101 263a 8381      		ldd r24,Z+3
 6102 263c 8623      		and r24,r22
 6103 263e 8383      		std Z+3,r24
 6104               	.L642:
 6105 2640 F801      		movw r30,r16
 6106 2642 C180      		ldd r12,Z+1
 6107 2644 D280      		ldd r13,Z+2
 6108 2646 C114      		cp r12,__zero_reg__
 6109 2648 D104      		cpc r13,__zero_reg__
 6110 264a 01F4      		brne .+2
 6111 264c 00C0      		rjmp .L662
 6112 264e 1982      		std Y+1,__zero_reg__
 6113 2650 00C0      		rjmp .L651
 6114               	.L646:
 6115 2652 F601      		movw r30,r12
 6116 2654 6085      		ldd r22,Z+8
 6117 2656 F801      		movw r30,r16
 6118 2658 8381      		ldd r24,Z+3
 6119 265a 8095      		com r24
 6120 265c 8623      		and r24,r22
 6121 265e 6817      		cp r22,r24
 6122 2660 01F0      		breq .L657
 6123               	.L645:
 6124 2662 F601      		movw r30,r12
 6125 2664 8081      		ld r24,Z
 6126 2666 9181      		ldd r25,Z+1
 6127 2668 9C01      		movw r18,r24
 6128 266a 6901      		movw r12,r18
 6129 266c 2115      		cp r18,__zero_reg__
 6130 266e 3105      		cpc r19,__zero_reg__
 6131 2670 01F0      		breq .L644
 6132               	.L651:
 6133 2672 F601      		movw r30,r12
 6134 2674 8185      		ldd r24,Z+9
 6135 2676 8130      		cpi r24,lo8(1)
 6136 2678 01F0      		breq .L647
 6137 267a 8130      		cpi r24,lo8(1)
 6138 267c 00F0      		brlo .L646
 6139 267e 8230      		cpi r24,lo8(2)
 6140 2680 01F0      		breq .L648
 6141 2682 8330      		cpi r24,lo8(3)
 6142 2684 01F4      		brne .L645
 6143 2686 F601      		movw r30,r12
 6144 2688 6085      		ldd r22,Z+8
 6145 268a F801      		movw r30,r16
 6146 268c 8381      		ldd r24,Z+3
 6147 268e 6823      		and r22,r24
 6148 2690 01F0      		breq .L645
 6149               	.L657:
 6150 2692 C601      		movw r24,r12
 6151 2694 0E94 0000 		call OS_FlagTaskRdy
 6152 2698 8130      		cpi r24,lo8(1)
 6153 269a 01F4      		brne .L645
 6154 269c F1E0      		ldi r31,lo8(1)
 6155 269e F983      		std Y+1,r31
 6156 26a0 F601      		movw r30,r12
GAS LISTING C:\Users\user\AppData\Local\Temp/ccHVvlcI.s 			page 109


 6157 26a2 8081      		ld r24,Z
 6158 26a4 9181      		ldd r25,Z+1
 6159 26a6 9C01      		movw r18,r24
 6160 26a8 6901      		movw r12,r18
 6161 26aa 2115      		cp r18,__zero_reg__
 6162 26ac 3105      		cpc r19,__zero_reg__
 6163 26ae 01F4      		brne .L651
 6164               	.L644:
 6165               	/* #APP */
 6166               	 ;  636 "c:/lab2/source/os_flag.c" 1
 6167 26b0 7894      		sei
 6168               	 ;  0 "" 2
 6169               	/* #NOAPP */
 6170 26b2 F981      		ldd r31,Y+1
 6171 26b4 F130      		cpi r31,lo8(1)
 6172 26b6 01F0      		breq .L663
 6173               	.L652:
 6174               	/* #APP */
 6175               	 ;  640 "c:/lab2/source/os_flag.c" 1
 6176 26b8 F894      		cli
 6177               	 ;  0 "" 2
 6178               	/* #NOAPP */
 6179 26ba F801      		movw r30,r16
 6180 26bc 8381      		ldd r24,Z+3
 6181               	/* #APP */
 6182               	 ;  642 "c:/lab2/source/os_flag.c" 1
 6183 26be 7894      		sei
 6184               	 ;  0 "" 2
 6185               	/* #NOAPP */
 6186 26c0 F701      		movw r30,r14
 6187 26c2 1082      		st Z,__zero_reg__
 6188 26c4 00C0      		rjmp .L637
 6189               	.L661:
 6190 26c6 4130      		cpi r20,lo8(1)
 6191 26c8 01F0      		breq .L664
 6192               	/* #APP */
 6193               	 ;  588 "c:/lab2/source/os_flag.c" 1
 6194 26ca 7894      		sei
 6195               	 ;  0 "" 2
 6196               	/* #NOAPP */
 6197 26cc 89E9      		ldi r24,lo8(-103)
 6198 26ce F901      		movw r30,r18
 6199 26d0 8083      		st Z,r24
 6200 26d2 80E0      		ldi r24,lo8(0)
 6201 26d4 00C0      		rjmp .L637
 6202               	.L647:
 6203 26d6 F801      		movw r30,r16
 6204 26d8 6381      		ldd r22,Z+3
 6205 26da 6095      		com r22
 6206 26dc F601      		movw r30,r12
 6207 26de 8085      		ldd r24,Z+8
 6208 26e0 6823      		and r22,r24
 6209 26e2 01F4      		brne .+2
 6210 26e4 00C0      		rjmp .L645
 6211 26e6 00C0      		rjmp .L657
 6212               	.L648:
 6213 26e8 F601      		movw r30,r12
GAS LISTING C:\Users\user\AppData\Local\Temp/ccHVvlcI.s 			page 110


 6214 26ea 6085      		ldd r22,Z+8
 6215 26ec F801      		movw r30,r16
 6216 26ee 8381      		ldd r24,Z+3
 6217 26f0 8623      		and r24,r22
 6218 26f2 6817      		cp r22,r24
 6219 26f4 01F0      		breq .+2
 6220 26f6 00C0      		rjmp .L645
 6221 26f8 00C0      		rjmp .L657
 6222               	.L660:
 6223 26fa 86E9      		ldi r24,lo8(-106)
 6224 26fc F901      		movw r30,r18
 6225 26fe 8083      		st Z,r24
 6226 2700 80E0      		ldi r24,lo8(0)
 6227 2702 00C0      		rjmp .L637
 6228               	.L664:
 6229 2704 F801      		movw r30,r16
 6230 2706 8381      		ldd r24,Z+3
 6231 2708 862B      		or r24,r22
 6232 270a 8383      		std Z+3,r24
 6233 270c 00C0      		rjmp .L642
 6234               	.L663:
 6235 270e 0E94 0000 		call OS_Sched
 6236 2712 00C0      		rjmp .L652
 6237               	.L662:
 6238 2714 1982      		std Y+1,__zero_reg__
 6239 2716 00C0      		rjmp .L644
 6240               		.size	OSFlagPost, .-OSFlagPost
 6241               	.global	OSFlagPend
 6242               		.type	OSFlagPend, @function
 6243               	OSFlagPend:
 6244 2718 8F92      		push r8
 6245 271a 9F92      		push r9
 6246 271c BF92      		push r11
 6247 271e CF92      		push r12
 6248 2720 DF92      		push r13
 6249 2722 EF92      		push r14
 6250 2724 FF92      		push r15
 6251 2726 0F93      		push r16
 6252 2728 1F93      		push r17
 6253 272a DF93      		push r29
 6254 272c CF93      		push r28
 6255 272e CDB7      		in r28,__SP_L__
 6256 2730 DEB7      		in r29,__SP_H__
 6257 2732 2B97      		sbiw r28,11
 6258 2734 0FB6      		in __tmp_reg__,__SREG__
 6259 2736 F894      		cli
 6260 2738 DEBF      		out __SP_H__,r29
 6261 273a 0FBE      		out __SREG__,__tmp_reg__
 6262 273c CDBF      		out __SP_L__,r28
 6263               	/* prologue: function */
 6264               	/* frame size = 11 */
 6265 273e 7C01      		movw r14,r24
 6266 2740 562F      		mov r21,r22
 6267 2742 B42E      		mov r11,r20
 6268 2744 F901      		movw r30,r18
 6269 2746 6801      		movw r12,r16
 6270 2748 8091 0000 		lds r24,OSIntNesting
GAS LISTING C:\Users\user\AppData\Local\Temp/ccHVvlcI.s 			page 111


 6271 274c 8823      		tst r24
 6272 274e 01F4      		brne .L696
 6273 2750 E114      		cp r14,__zero_reg__
 6274 2752 F104      		cpc r15,__zero_reg__
 6275 2754 01F0      		breq .L697
 6276 2756 D701      		movw r26,r14
 6277 2758 8C91      		ld r24,X
 6278 275a 8530      		cpi r24,lo8(5)
 6279 275c 01F0      		breq .L669
 6280 275e 81E0      		ldi r24,lo8(1)
 6281 2760 F801      		movw r30,r16
 6282 2762 8083      		st Z,r24
 6283 2764 80E0      		ldi r24,lo8(0)
 6284               	.L667:
 6285               	/* epilogue start */
 6286 2766 2B96      		adiw r28,11
 6287 2768 0FB6      		in __tmp_reg__,__SREG__
 6288 276a F894      		cli
 6289 276c DEBF      		out __SP_H__,r29
 6290 276e 0FBE      		out __SREG__,__tmp_reg__
 6291 2770 CDBF      		out __SP_L__,r28
 6292 2772 CF91      		pop r28
 6293 2774 DF91      		pop r29
 6294 2776 1F91      		pop r17
 6295 2778 0F91      		pop r16
 6296 277a FF90      		pop r15
 6297 277c EF90      		pop r14
 6298 277e DF90      		pop r13
 6299 2780 CF90      		pop r12
 6300 2782 BF90      		pop r11
 6301 2784 9F90      		pop r9
 6302 2786 8F90      		pop r8
 6303 2788 0895      		ret
 6304               	.L696:
 6305 278a 82E0      		ldi r24,lo8(2)
 6306 278c D801      		movw r26,r16
 6307 278e 8C93      		st X,r24
 6308 2790 80E0      		ldi r24,lo8(0)
 6309 2792 00C0      		rjmp .L667
 6310               	.L697:
 6311 2794 86E9      		ldi r24,lo8(-106)
 6312 2796 F801      		movw r30,r16
 6313 2798 8083      		st Z,r24
 6314 279a 80E0      		ldi r24,lo8(0)
 6315 279c 00C0      		rjmp .L667
 6316               	.L669:
 6317 279e 47FD      		sbrc r20,7
 6318 27a0 00C0      		rjmp .L670
 6319 27a2 1B86      		std Y+11,__zero_reg__
 6320               	.L671:
 6321               	/* #APP */
 6322               	 ;  409 "c:/lab2/source/os_flag.c" 1
 6323 27a4 F894      		cli
 6324               	 ;  0 "" 2
 6325               	/* #NOAPP */
 6326 27a6 A1E0      		ldi r26,lo8(1)
 6327 27a8 BA16      		cp r11,r26
GAS LISTING C:\Users\user\AppData\Local\Temp/ccHVvlcI.s 			page 112


 6328 27aa 01F4      		brne .+2
 6329 27ac 00C0      		rjmp .L674
 6330 27ae BA16      		cp r11,r26
 6331 27b0 00F4      		brsh .L698
 6332 27b2 D701      		movw r26,r14
 6333 27b4 1396      		adiw r26,3
 6334 27b6 4C91      		ld r20,X
 6335 27b8 842F      		mov r24,r20
 6336 27ba 8095      		com r24
 6337 27bc 8523      		and r24,r21
 6338 27be 8517      		cp r24,r21
 6339 27c0 01F4      		brne .+2
 6340 27c2 00C0      		rjmp .L699
 6341 27c4 C701      		movw r24,r14
 6342 27c6 4E01      		movw r8,r28
 6343 27c8 0894      		sec
 6344 27ca 811C      		adc r8,__zero_reg__
 6345 27cc 911C      		adc r9,__zero_reg__
 6346 27ce B401      		movw r22,r8
 6347 27d0 452F      		mov r20,r21
 6348 27d2 20E0      		ldi r18,lo8(0)
 6349 27d4 8F01      		movw r16,r30
 6350 27d6 0E94 0000 		call OS_FlagBlock
 6351               	/* #APP */
 6352               	 ;  456 "c:/lab2/source/os_flag.c" 1
 6353 27da 7894      		sei
 6354               	 ;  0 "" 2
 6355               	/* #NOAPP */
 6356               	.L679:
 6357 27dc 0E94 0000 		call OS_Sched
 6358               	/* #APP */
 6359               	 ;  484 "c:/lab2/source/os_flag.c" 1
 6360 27e0 F894      		cli
 6361               	 ;  0 "" 2
 6362               	/* #NOAPP */
 6363 27e2 E091 0000 		lds r30,OSTCBCur
 6364 27e6 F091 0000 		lds r31,(OSTCBCur)+1
 6365 27ea 838D      		ldd r24,Z+27
 6366 27ec 85FD      		sbrc r24,5
 6367 27ee 00C0      		rjmp .L700
 6368 27f0 BB85      		ldd r27,Y+11
 6369 27f2 B130      		cpi r27,lo8(1)
 6370 27f4 01F4      		brne .+2
 6371 27f6 00C0      		rjmp .L694
 6372 27f8 F701      		movw r30,r14
 6373 27fa 4381      		ldd r20,Z+3
 6374               	.L687:
 6375 27fc 842F      		mov r24,r20
 6376               	/* #APP */
 6377               	 ;  508 "c:/lab2/source/os_flag.c" 1
 6378 27fe 7894      		sei
 6379               	 ;  0 "" 2
 6380               	/* #NOAPP */
 6381 2800 F601      		movw r30,r12
 6382 2802 1082      		st Z,__zero_reg__
 6383 2804 00C0      		rjmp .L667
 6384               	.L698:
GAS LISTING C:\Users\user\AppData\Local\Temp/ccHVvlcI.s 			page 113


 6385 2806 B2E0      		ldi r27,lo8(2)
 6386 2808 BB16      		cp r11,r27
 6387 280a 01F0      		breq .L675
 6388 280c 83E0      		ldi r24,lo8(3)
 6389 280e B816      		cp r11,r24
 6390 2810 01F4      		brne .+2
 6391 2812 00C0      		rjmp .L701
 6392               	/* #APP */
 6393               	 ;  478 "c:/lab2/source/os_flag.c" 1
 6394 2814 7894      		sei
 6395               	 ;  0 "" 2
 6396               	/* #NOAPP */
 6397 2816 87E9      		ldi r24,lo8(-105)
 6398 2818 F601      		movw r30,r12
 6399 281a 8083      		st Z,r24
 6400 281c 80E0      		ldi r24,lo8(0)
 6401 281e 00C0      		rjmp .L667
 6402               	.L675:
 6403 2820 D701      		movw r26,r14
 6404 2822 1396      		adiw r26,3
 6405 2824 4C91      		ld r20,X
 6406 2826 852F      		mov r24,r21
 6407 2828 8423      		and r24,r20
 6408 282a 8517      		cp r24,r21
 6409 282c 01F0      		breq .+2
 6410 282e 00C0      		rjmp .L677
 6411 2830 BB85      		ldd r27,Y+11
 6412 2832 B130      		cpi r27,lo8(1)
 6413 2834 01F4      		brne .L678
 6414 2836 852F      		mov r24,r21
 6415 2838 8095      		com r24
 6416 283a 8423      		and r24,r20
 6417 283c F701      		movw r30,r14
 6418 283e 8383      		std Z+3,r24
 6419 2840 482F      		mov r20,r24
 6420               	.L678:
 6421 2842 842F      		mov r24,r20
 6422               	/* #APP */
 6423               	 ;  418 "c:/lab2/source/os_flag.c" 1
 6424 2844 7894      		sei
 6425               	 ;  0 "" 2
 6426               	/* #NOAPP */
 6427 2846 D601      		movw r26,r12
 6428 2848 1C92      		st X,__zero_reg__
 6429 284a 00C0      		rjmp .L667
 6430               	.L699:
 6431 284c BB85      		ldd r27,Y+11
 6432 284e B130      		cpi r27,lo8(1)
 6433 2850 01F4      		brne .L683
 6434 2852 842F      		mov r24,r20
 6435 2854 852B      		or r24,r21
 6436 2856 F701      		movw r30,r14
 6437 2858 8383      		std Z+3,r24
 6438 285a 482F      		mov r20,r24
 6439               	.L683:
 6440 285c 842F      		mov r24,r20
 6441               	/* #APP */
GAS LISTING C:\Users\user\AppData\Local\Temp/ccHVvlcI.s 			page 114


 6442               	 ;  451 "c:/lab2/source/os_flag.c" 1
 6443 285e 7894      		sei
 6444               	 ;  0 "" 2
 6445               	/* #NOAPP */
 6446 2860 D601      		movw r26,r12
 6447 2862 1C92      		st X,__zero_reg__
 6448 2864 00C0      		rjmp .L667
 6449               	.L670:
 6450 2866 8FE7      		ldi r24,lo8(127)
 6451 2868 B822      		and r11,r24
 6452 286a 91E0      		ldi r25,lo8(1)
 6453 286c 9B87      		std Y+11,r25
 6454 286e 00C0      		rjmp .L671
 6455               	.L674:
 6456 2870 D701      		movw r26,r14
 6457 2872 1396      		adiw r26,3
 6458 2874 4C91      		ld r20,X
 6459 2876 642F      		mov r22,r20
 6460 2878 6095      		com r22
 6461 287a 6523      		and r22,r21
 6462 287c 01F4      		brne .+2
 6463 287e 00C0      		rjmp .L684
 6464 2880 BB85      		ldd r27,Y+11
 6465 2882 B130      		cpi r27,lo8(1)
 6466 2884 01F4      		brne .L685
 6467 2886 862F      		mov r24,r22
 6468 2888 842B      		or r24,r20
 6469 288a F701      		movw r30,r14
 6470 288c 8383      		std Z+3,r24
 6471 288e 482F      		mov r20,r24
 6472               	.L685:
 6473 2890 842F      		mov r24,r20
 6474               	/* #APP */
 6475               	 ;  467 "c:/lab2/source/os_flag.c" 1
 6476 2892 7894      		sei
 6477               	 ;  0 "" 2
 6478               	/* #NOAPP */
 6479 2894 D601      		movw r26,r12
 6480 2896 1C92      		st X,__zero_reg__
 6481 2898 00C0      		rjmp .L667
 6482               	.L701:
 6483 289a D701      		movw r26,r14
 6484 289c 1396      		adiw r26,3
 6485 289e 4C91      		ld r20,X
 6486 28a0 852F      		mov r24,r21
 6487 28a2 8423      		and r24,r20
 6488 28a4 01F4      		brne .+2
 6489 28a6 00C0      		rjmp .L680
 6490 28a8 BB85      		ldd r27,Y+11
 6491 28aa B130      		cpi r27,lo8(1)
 6492 28ac 01F4      		brne .L681
 6493 28ae 8095      		com r24
 6494 28b0 8423      		and r24,r20
 6495 28b2 F701      		movw r30,r14
 6496 28b4 8383      		std Z+3,r24
 6497 28b6 482F      		mov r20,r24
 6498               	.L681:
GAS LISTING C:\Users\user\AppData\Local\Temp/ccHVvlcI.s 			page 115


 6499 28b8 842F      		mov r24,r20
 6500               	/* #APP */
 6501               	 ;  434 "c:/lab2/source/os_flag.c" 1
 6502 28ba 7894      		sei
 6503               	 ;  0 "" 2
 6504               	/* #NOAPP */
 6505 28bc D601      		movw r26,r12
 6506 28be 1C92      		st X,__zero_reg__
 6507 28c0 00C0      		rjmp .L667
 6508               	.L700:
 6509 28c2 C401      		movw r24,r8
 6510 28c4 0E94 0000 		call OS_FlagUnlink
 6511 28c8 E091 0000 		lds r30,OSTCBCur
 6512 28cc F091 0000 		lds r31,(OSTCBCur)+1
 6513 28d0 138E      		std Z+27,__zero_reg__
 6514               	/* #APP */
 6515               	 ;  488 "c:/lab2/source/os_flag.c" 1
 6516 28d2 7894      		sei
 6517               	 ;  0 "" 2
 6518               	/* #NOAPP */
 6519 28d4 8AE0      		ldi r24,lo8(10)
 6520 28d6 D601      		movw r26,r12
 6521 28d8 8C93      		st X,r24
 6522 28da 80E0      		ldi r24,lo8(0)
 6523 28dc 00C0      		rjmp .L667
 6524               	.L677:
 6525 28de C701      		movw r24,r14
 6526 28e0 4E01      		movw r8,r28
 6527 28e2 0894      		sec
 6528 28e4 811C      		adc r8,__zero_reg__
 6529 28e6 911C      		adc r9,__zero_reg__
 6530 28e8 B401      		movw r22,r8
 6531 28ea 452F      		mov r20,r21
 6532 28ec 22E0      		ldi r18,lo8(2)
 6533 28ee 8F01      		movw r16,r30
 6534 28f0 0E94 0000 		call OS_FlagBlock
 6535               	/* #APP */
 6536               	 ;  423 "c:/lab2/source/os_flag.c" 1
 6537 28f4 7894      		sei
 6538               	 ;  0 "" 2
 6539               	/* #NOAPP */
 6540 28f6 00C0      		rjmp .L679
 6541               	.L694:
 6542 28f8 81E0      		ldi r24,lo8(1)
 6543 28fa 8B15      		cp r24,r11
 6544 28fc 00F0      		brlo .L702
 6545 28fe D701      		movw r26,r14
 6546 2900 1396      		adiw r26,3
 6547 2902 4C91      		ld r20,X
 6548 2904 1397      		sbiw r26,3
 6549 2906 808D      		ldd r24,Z+24
 6550 2908 482B      		or r20,r24
 6551 290a 1396      		adiw r26,3
 6552 290c 4C93      		st X,r20
 6553 290e 00C0      		rjmp .L687
 6554               	.L684:
 6555 2910 C701      		movw r24,r14
GAS LISTING C:\Users\user\AppData\Local\Temp/ccHVvlcI.s 			page 116


 6556 2912 4E01      		movw r8,r28
 6557 2914 0894      		sec
 6558 2916 811C      		adc r8,__zero_reg__
 6559 2918 911C      		adc r9,__zero_reg__
 6560 291a B401      		movw r22,r8
 6561 291c 452F      		mov r20,r21
 6562 291e 21E0      		ldi r18,lo8(1)
 6563 2920 8F01      		movw r16,r30
 6564 2922 0E94 0000 		call OS_FlagBlock
 6565               	/* #APP */
 6566               	 ;  472 "c:/lab2/source/os_flag.c" 1
 6567 2926 7894      		sei
 6568               	 ;  0 "" 2
 6569               	/* #NOAPP */
 6570 2928 00C0      		rjmp .L679
 6571               	.L680:
 6572 292a C701      		movw r24,r14
 6573 292c 4E01      		movw r8,r28
 6574 292e 0894      		sec
 6575 2930 811C      		adc r8,__zero_reg__
 6576 2932 911C      		adc r9,__zero_reg__
 6577 2934 B401      		movw r22,r8
 6578 2936 452F      		mov r20,r21
 6579 2938 23E0      		ldi r18,lo8(3)
 6580 293a 8F01      		movw r16,r30
 6581 293c 0E94 0000 		call OS_FlagBlock
 6582               	/* #APP */
 6583               	 ;  439 "c:/lab2/source/os_flag.c" 1
 6584 2940 7894      		sei
 6585               	 ;  0 "" 2
 6586               	/* #NOAPP */
 6587 2942 00C0      		rjmp .L679
 6588               	.L702:
 6589 2944 93E0      		ldi r25,lo8(3)
 6590 2946 9B15      		cp r25,r11
 6591 2948 00F4      		brsh .L695
 6592 294a D701      		movw r26,r14
 6593 294c 1396      		adiw r26,3
 6594 294e 4C91      		ld r20,X
 6595 2950 00C0      		rjmp .L687
 6596               	.L695:
 6597 2952 808D      		ldd r24,Z+24
 6598 2954 8095      		com r24
 6599 2956 F701      		movw r30,r14
 6600 2958 4381      		ldd r20,Z+3
 6601 295a 4823      		and r20,r24
 6602 295c 4383      		std Z+3,r20
 6603 295e 00C0      		rjmp .L687
 6604               		.size	OSFlagPend, .-OSFlagPend
 6605               	.global	OSFlagDel
 6606               		.type	OSFlagDel, @function
 6607               	OSFlagDel:
 6608 2960 DF92      		push r13
 6609 2962 EF92      		push r14
 6610 2964 FF92      		push r15
 6611 2966 0F93      		push r16
 6612 2968 1F93      		push r17
GAS LISTING C:\Users\user\AppData\Local\Temp/ccHVvlcI.s 			page 117


 6613 296a CF93      		push r28
 6614 296c DF93      		push r29
 6615               	/* prologue: function */
 6616               	/* frame size = 0 */
 6617 296e 8C01      		movw r16,r24
 6618 2970 7A01      		movw r14,r20
 6619 2972 8091 0000 		lds r24,OSIntNesting
 6620 2976 8823      		tst r24
 6621 2978 01F4      		brne .L721
 6622 297a 0115      		cp r16,__zero_reg__
 6623 297c 1105      		cpc r17,__zero_reg__
 6624 297e 01F0      		breq .L722
 6625 2980 F801      		movw r30,r16
 6626 2982 8081      		ld r24,Z
 6627 2984 8530      		cpi r24,lo8(5)
 6628 2986 01F0      		breq .L707
 6629 2988 81E0      		ldi r24,lo8(1)
 6630 298a FA01      		movw r30,r20
 6631 298c 8083      		st Z,r24
 6632               	.L705:
 6633 298e C801      		movw r24,r16
 6634               	/* epilogue start */
 6635 2990 DF91      		pop r29
 6636 2992 CF91      		pop r28
 6637 2994 1F91      		pop r17
 6638 2996 0F91      		pop r16
 6639 2998 FF90      		pop r15
 6640 299a EF90      		pop r14
 6641 299c DF90      		pop r13
 6642 299e 0895      		ret
 6643               	.L721:
 6644 29a0 8CE8      		ldi r24,lo8(-116)
 6645 29a2 FA01      		movw r30,r20
 6646 29a4 8083      		st Z,r24
 6647 29a6 00C0      		rjmp .L705
 6648               	.L722:
 6649 29a8 86E9      		ldi r24,lo8(-106)
 6650 29aa FA01      		movw r30,r20
 6651 29ac 8083      		st Z,r24
 6652 29ae 00C0      		rjmp .L705
 6653               	.L707:
 6654               	/* #APP */
 6655               	 ;  283 "c:/lab2/source/os_flag.c" 1
 6656 29b0 F894      		cli
 6657               	 ;  0 "" 2
 6658               	/* #NOAPP */
 6659 29b2 F801      		movw r30,r16
 6660 29b4 2181      		ldd r18,Z+1
 6661 29b6 3281      		ldd r19,Z+2
 6662 29b8 DD24      		clr r13
 6663 29ba 2115      		cp r18,__zero_reg__
 6664 29bc 3105      		cpc r19,__zero_reg__
 6665 29be 01F0      		breq .L708
 6666 29c0 DD24      		clr r13
 6667 29c2 D394      		inc r13
 6668               	.L708:
 6669 29c4 6623      		tst r22
GAS LISTING C:\Users\user\AppData\Local\Temp/ccHVvlcI.s 			page 118


 6670 29c6 01F4      		brne .L723
 6671 29c8 DD20      		tst r13
 6672 29ca 01F0      		breq .L724
 6673               	/* #APP */
 6674               	 ;  299 "c:/lab2/source/os_flag.c" 1
 6675 29cc 7894      		sei
 6676               	 ;  0 "" 2
 6677               	/* #NOAPP */
 6678 29ce 88E0      		ldi r24,lo8(8)
 6679 29d0 F701      		movw r30,r14
 6680 29d2 8083      		st Z,r24
 6681 29d4 00C0      		rjmp .L705
 6682               	.L723:
 6683 29d6 6130      		cpi r22,lo8(1)
 6684 29d8 01F0      		breq .L720
 6685               	/* #APP */
 6686               	 ;  321 "c:/lab2/source/os_flag.c" 1
 6687 29da 7894      		sei
 6688               	 ;  0 "" 2
 6689               	/* #NOAPP */
 6690 29dc 87E0      		ldi r24,lo8(7)
 6691 29de F701      		movw r30,r14
 6692 29e0 8083      		st Z,r24
 6693 29e2 00C0      		rjmp .L705
 6694               	.L717:
 6695 29e4 CE01      		movw r24,r28
 6696 29e6 60E0      		ldi r22,lo8(0)
 6697 29e8 0E94 0000 		call OS_FlagTaskRdy
 6698 29ec 8881      		ld r24,Y
 6699 29ee 9981      		ldd r25,Y+1
 6700 29f0 9C01      		movw r18,r24
 6701               	.L720:
 6702 29f2 E901      		movw r28,r18
 6703 29f4 2115      		cp r18,__zero_reg__
 6704 29f6 3105      		cpc r19,__zero_reg__
 6705 29f8 01F4      		brne .L717
 6706 29fa F801      		movw r30,r16
 6707 29fc 1082      		st Z,__zero_reg__
 6708 29fe 8091 0000 		lds r24,OSFlagFreeList
 6709 2a02 9091 0000 		lds r25,(OSFlagFreeList)+1
 6710 2a06 9283      		std Z+2,r25
 6711 2a08 8183      		std Z+1,r24
 6712 2a0a 1093 0000 		sts (OSFlagFreeList)+1,r17
 6713 2a0e 0093 0000 		sts OSFlagFreeList,r16
 6714               	/* #APP */
 6715               	 ;  313 "c:/lab2/source/os_flag.c" 1
 6716 2a12 7894      		sei
 6717               	 ;  0 "" 2
 6718               	/* #NOAPP */
 6719 2a14 F1E0      		ldi r31,lo8(1)
 6720 2a16 DF16      		cp r13,r31
 6721 2a18 01F0      		breq .L725
 6722               	.L715:
 6723 2a1a F701      		movw r30,r14
 6724 2a1c 1082      		st Z,__zero_reg__
 6725 2a1e 00E0      		ldi r16,lo8(0)
 6726 2a20 10E0      		ldi r17,hi8(0)
GAS LISTING C:\Users\user\AppData\Local\Temp/ccHVvlcI.s 			page 119


 6727 2a22 00C0      		rjmp .L705
 6728               	.L725:
 6729 2a24 0E94 0000 		call OS_Sched
 6730 2a28 00C0      		rjmp .L715
 6731               	.L724:
 6732 2a2a F801      		movw r30,r16
 6733 2a2c 1082      		st Z,__zero_reg__
 6734 2a2e 8091 0000 		lds r24,OSFlagFreeList
 6735 2a32 9091 0000 		lds r25,(OSFlagFreeList)+1
 6736 2a36 9283      		std Z+2,r25
 6737 2a38 8183      		std Z+1,r24
 6738 2a3a 1093 0000 		sts (OSFlagFreeList)+1,r17
 6739 2a3e 0093 0000 		sts OSFlagFreeList,r16
 6740               	/* #APP */
 6741               	 ;  295 "c:/lab2/source/os_flag.c" 1
 6742 2a42 7894      		sei
 6743               	 ;  0 "" 2
 6744               	/* #NOAPP */
 6745 2a44 F701      		movw r30,r14
 6746 2a46 1082      		st Z,__zero_reg__
 6747 2a48 00E0      		ldi r16,lo8(0)
 6748 2a4a 10E0      		ldi r17,hi8(0)
 6749 2a4c 00C0      		rjmp .L705
 6750               		.size	OSFlagDel, .-OSFlagDel
 6751               	.global	OSSchedUnlock
 6752               		.type	OSSchedUnlock, @function
 6753               	OSSchedUnlock:
 6754               	/* prologue: function */
 6755               	/* frame size = 0 */
 6756 2a4e 8091 0000 		lds r24,OSRunning
 6757 2a52 8130      		cpi r24,lo8(1)
 6758 2a54 01F0      		breq .L731
 6759 2a56 0895      		ret
 6760               	.L731:
 6761               	/* #APP */
 6762               	 ;  256 "c:/lab2/source/os_core.c" 1
 6763 2a58 F894      		cli
 6764               	 ;  0 "" 2
 6765               	/* #NOAPP */
 6766 2a5a 8091 0000 		lds r24,OSLockNesting
 6767 2a5e 8823      		tst r24
 6768 2a60 01F0      		breq .L728
 6769 2a62 8150      		subi r24,lo8(-(-1))
 6770 2a64 8093 0000 		sts OSLockNesting,r24
 6771 2a68 8823      		tst r24
 6772 2a6a 01F4      		brne .L729
 6773 2a6c 8091 0000 		lds r24,OSIntNesting
 6774 2a70 8823      		tst r24
 6775 2a72 01F0      		breq .L732
 6776               	.L729:
 6777               	/* #APP */
 6778               	 ;  263 "c:/lab2/source/os_core.c" 1
 6779 2a74 7894      		sei
 6780               	 ;  0 "" 2
 6781               	/* #NOAPP */
 6782 2a76 0895      		ret
 6783               	.L728:
GAS LISTING C:\Users\user\AppData\Local\Temp/ccHVvlcI.s 			page 120


 6784               	/* #APP */
 6785               	 ;  266 "c:/lab2/source/os_core.c" 1
 6786 2a78 7894      		sei
 6787               	 ;  0 "" 2
 6788               	/* #NOAPP */
 6789 2a7a 0895      		ret
 6790               	.L732:
 6791               	/* #APP */
 6792               	 ;  260 "c:/lab2/source/os_core.c" 1
 6793 2a7c 7894      		sei
 6794               	 ;  0 "" 2
 6795               	/* #NOAPP */
 6796 2a7e 0E94 0000 		call OS_Sched
 6797 2a82 0895      		ret
 6798               		.size	OSSchedUnlock, .-OSSchedUnlock
 6799               	.global	OSTimeTick
 6800               		.type	OSTimeTick, @function
 6801               	OSTimeTick:
 6802               	/* prologue: function */
 6803               	/* frame size = 0 */
 6804 2a84 0E94 0000 		call OSTimeTickHook
 6805               	/* #APP */
 6806               	 ;  374 "c:/lab2/source/os_core.c" 1
 6807 2a88 F894      		cli
 6808               	 ;  0 "" 2
 6809               	/* #NOAPP */
 6810 2a8a 8091 0000 		lds r24,OSTime
 6811 2a8e 9091 0000 		lds r25,(OSTime)+1
 6812 2a92 A091 0000 		lds r26,(OSTime)+2
 6813 2a96 B091 0000 		lds r27,(OSTime)+3
 6814 2a9a 0196      		adiw r24,1
 6815 2a9c A11D      		adc r26,__zero_reg__
 6816 2a9e B11D      		adc r27,__zero_reg__
 6817 2aa0 8093 0000 		sts OSTime,r24
 6818 2aa4 9093 0000 		sts (OSTime)+1,r25
 6819 2aa8 A093 0000 		sts (OSTime)+2,r26
 6820 2aac B093 0000 		sts (OSTime)+3,r27
 6821               	/* #APP */
 6822               	 ;  376 "c:/lab2/source/os_core.c" 1
 6823 2ab0 7894      		sei
 6824               	 ;  0 "" 2
 6825               	/* #NOAPP */
 6826 2ab2 8091 0000 		lds r24,OSRunning
 6827 2ab6 8130      		cpi r24,lo8(1)
 6828 2ab8 01F0      		breq .L740
 6829               	.L738:
 6830 2aba 0895      		ret
 6831               	.L740:
 6832 2abc A091 0000 		lds r26,OSTCBList
 6833 2ac0 B091 0000 		lds r27,(OSTCBList)+1
 6834 2ac4 5C96      		adiw r26,28
 6835 2ac6 8C91      		ld r24,X
 6836 2ac8 5C97      		sbiw r26,28
 6837 2aca 8C30      		cpi r24,lo8(12)
 6838 2acc 01F0      		breq .L738
 6839 2ace 2091 0000 		lds r18,OSRdyGrp
 6840 2ad2 41E0      		ldi r20,lo8(1)
GAS LISTING C:\Users\user\AppData\Local\Temp/ccHVvlcI.s 			page 121


 6841 2ad4 50E0      		ldi r21,hi8(1)
 6842 2ad6 00C0      		rjmp .L737
 6843               	.L742:
 6844 2ad8 9096      		adiw r26,32
 6845 2ada 8C91      		ld r24,X
 6846 2adc 9097      		sbiw r26,32
 6847 2ade 282B      		or r18,r24
 6848 2ae0 5E96      		adiw r26,30
 6849 2ae2 EC91      		ld r30,X
 6850 2ae4 5E97      		sbiw r26,30
 6851 2ae6 F0E0      		ldi r31,lo8(0)
 6852 2ae8 E050      		subi r30,lo8(-(OSRdyTbl))
 6853 2aea F040      		sbci r31,hi8(-(OSRdyTbl))
 6854 2aec 8081      		ld r24,Z
 6855 2aee 5F96      		adiw r26,31
 6856 2af0 9C91      		ld r25,X
 6857 2af2 5F97      		sbiw r26,31
 6858 2af4 892B      		or r24,r25
 6859 2af6 8083      		st Z,r24
 6860               	.L735:
 6861 2af8 1E96      		adiw r26,14
 6862 2afa 0D90      		ld __tmp_reg__,X+
 6863 2afc BC91      		ld r27,X
 6864 2afe A02D      		mov r26,__tmp_reg__
 6865               	/* #APP */
 6866               	 ;  393 "c:/lab2/source/os_core.c" 1
 6867 2b00 7894      		sei
 6868               	 ;  0 "" 2
 6869               	/* #NOAPP */
 6870 2b02 5C96      		adiw r26,28
 6871 2b04 8C91      		ld r24,X
 6872 2b06 5C97      		sbiw r26,28
 6873 2b08 8C30      		cpi r24,lo8(12)
 6874 2b0a 01F0      		breq .L741
 6875               	.L737:
 6876               	/* #APP */
 6877               	 ;  381 "c:/lab2/source/os_core.c" 1
 6878 2b0c F894      		cli
 6879               	 ;  0 "" 2
 6880               	/* #NOAPP */
 6881 2b0e 5996      		adiw r26,25
 6882 2b10 8D91      		ld r24,X+
 6883 2b12 9C91      		ld r25,X
 6884 2b14 5A97      		sbiw r26,25+1
 6885 2b16 0097      		sbiw r24,0
 6886 2b18 01F0      		breq .L735
 6887 2b1a 0197      		sbiw r24,1
 6888 2b1c 5A96      		adiw r26,25+1
 6889 2b1e 9C93      		st X,r25
 6890 2b20 8E93      		st -X,r24
 6891 2b22 5997      		sbiw r26,25
 6892 2b24 892B      		or r24,r25
 6893 2b26 01F4      		brne .L735
 6894 2b28 5B96      		adiw r26,27
 6895 2b2a 8C91      		ld r24,X
 6896 2b2c 5B97      		sbiw r26,27
 6897 2b2e 83FF      		sbrs r24,3
GAS LISTING C:\Users\user\AppData\Local\Temp/ccHVvlcI.s 			page 122


 6898 2b30 00C0      		rjmp .L742
 6899 2b32 5A96      		adiw r26,25+1
 6900 2b34 5C93      		st X,r21
 6901 2b36 4E93      		st -X,r20
 6902 2b38 5997      		sbiw r26,25
 6903 2b3a 00C0      		rjmp .L735
 6904               	.L741:
 6905 2b3c 2093 0000 		sts OSRdyGrp,r18
 6906 2b40 0895      		ret
 6907               		.size	OSTimeTick, .-OSTimeTick
 6908               	.global	OSStart
 6909               		.type	OSStart, @function
 6910               	OSStart:
 6911               	/* prologue: function */
 6912               	/* frame size = 0 */
 6913 2b42 8091 0000 		lds r24,OSRunning
 6914 2b46 8111      		cpse r24,__zero_reg__
 6915 2b48 0895      		ret
 6916               	.L746:
 6917 2b4a E091 0000 		lds r30,OSRdyGrp
 6918 2b4e F0E0      		ldi r31,lo8(0)
 6919 2b50 E050      		subi r30,lo8(-(OSUnMapTbl))
 6920 2b52 F040      		sbci r31,hi8(-(OSUnMapTbl))
 6921 2b54 A081      		ld r26,Z
 6922 2b56 EA2F      		mov r30,r26
 6923 2b58 F0E0      		ldi r31,lo8(0)
 6924 2b5a E050      		subi r30,lo8(-(OSRdyTbl))
 6925 2b5c F040      		sbci r31,hi8(-(OSRdyTbl))
 6926 2b5e E081      		ld r30,Z
 6927 2b60 F0E0      		ldi r31,lo8(0)
 6928 2b62 E050      		subi r30,lo8(-(OSUnMapTbl))
 6929 2b64 F040      		sbci r31,hi8(-(OSUnMapTbl))
 6930 2b66 AA0F      		lsl r26
 6931 2b68 AA0F      		lsl r26
 6932 2b6a AA0F      		lsl r26
 6933 2b6c 8081      		ld r24,Z
 6934 2b6e A80F      		add r26,r24
 6935 2b70 A093 0000 		sts OSPrioHighRdy,r26
 6936 2b74 A093 0000 		sts OSPrioCur,r26
 6937 2b78 B0E0      		ldi r27,lo8(0)
 6938 2b7a AA0F      		lsl r26
 6939 2b7c BB1F      		rol r27
 6940 2b7e A050      		subi r26,lo8(-(OSTCBPrioTbl))
 6941 2b80 B040      		sbci r27,hi8(-(OSTCBPrioTbl))
 6942 2b82 8D91      		ld r24,X+
 6943 2b84 9C91      		ld r25,X
 6944 2b86 9093 0000 		sts (OSTCBHighRdy)+1,r25
 6945 2b8a 8093 0000 		sts OSTCBHighRdy,r24
 6946 2b8e 9093 0000 		sts (OSTCBCur)+1,r25
 6947 2b92 8093 0000 		sts OSTCBCur,r24
 6948 2b96 0E94 0000 		call OSStartHighRdy
 6949 2b9a 0895      		ret
 6950               		.size	OSStart, .-OSStart
 6951               	.global	OSIntExit
 6952               		.type	OSIntExit, @function
 6953               	OSIntExit:
 6954               	/* prologue: function */
GAS LISTING C:\Users\user\AppData\Local\Temp/ccHVvlcI.s 			page 123


 6955               	/* frame size = 0 */
 6956 2b9c 8091 0000 		lds r24,OSRunning
 6957 2ba0 8130      		cpi r24,lo8(1)
 6958 2ba2 01F0      		breq .L752
 6959 2ba4 0895      		ret
 6960               	.L752:
 6961               	/* #APP */
 6962               	 ;  180 "c:/lab2/source/os_core.c" 1
 6963 2ba6 F894      		cli
 6964               	 ;  0 "" 2
 6965               	/* #NOAPP */
 6966 2ba8 8091 0000 		lds r24,OSIntNesting
 6967 2bac 8823      		tst r24
 6968 2bae 01F0      		breq .L749
 6969 2bb0 8150      		subi r24,lo8(-(-1))
 6970 2bb2 8093 0000 		sts OSIntNesting,r24
 6971 2bb6 8823      		tst r24
 6972 2bb8 01F0      		breq .L749
 6973               	.L750:
 6974               	/* #APP */
 6975               	 ;  193 "c:/lab2/source/os_core.c" 1
 6976 2bba 7894      		sei
 6977               	 ;  0 "" 2
 6978               	/* #NOAPP */
 6979 2bbc 0895      		ret
 6980               	.L749:
 6981 2bbe 8091 0000 		lds r24,OSLockNesting
 6982 2bc2 8823      		tst r24
 6983 2bc4 01F4      		brne .L750
 6984 2bc6 E091 0000 		lds r30,OSRdyGrp
 6985 2bca F0E0      		ldi r31,lo8(0)
 6986 2bcc E050      		subi r30,lo8(-(OSUnMapTbl))
 6987 2bce F040      		sbci r31,hi8(-(OSUnMapTbl))
 6988 2bd0 8081      		ld r24,Z
 6989 2bd2 8093 0000 		sts OSIntExitY,r24
 6990 2bd6 E82F      		mov r30,r24
 6991 2bd8 F0E0      		ldi r31,lo8(0)
 6992 2bda E050      		subi r30,lo8(-(OSRdyTbl))
 6993 2bdc F040      		sbci r31,hi8(-(OSRdyTbl))
 6994 2bde E081      		ld r30,Z
 6995 2be0 F0E0      		ldi r31,lo8(0)
 6996 2be2 E050      		subi r30,lo8(-(OSUnMapTbl))
 6997 2be4 F040      		sbci r31,hi8(-(OSUnMapTbl))
 6998 2be6 982F      		mov r25,r24
 6999 2be8 990F      		lsl r25
 7000 2bea 990F      		lsl r25
 7001 2bec 990F      		lsl r25
 7002 2bee 8081      		ld r24,Z
 7003 2bf0 980F      		add r25,r24
 7004 2bf2 9093 0000 		sts OSPrioHighRdy,r25
 7005 2bf6 8091 0000 		lds r24,OSPrioCur
 7006 2bfa 9817      		cp r25,r24
 7007 2bfc 01F0      		breq .L750
 7008 2bfe E92F      		mov r30,r25
 7009 2c00 F0E0      		ldi r31,lo8(0)
 7010 2c02 EE0F      		lsl r30
 7011 2c04 FF1F      		rol r31
GAS LISTING C:\Users\user\AppData\Local\Temp/ccHVvlcI.s 			page 124


 7012 2c06 E050      		subi r30,lo8(-(OSTCBPrioTbl))
 7013 2c08 F040      		sbci r31,hi8(-(OSTCBPrioTbl))
 7014 2c0a 8081      		ld r24,Z
 7015 2c0c 9181      		ldd r25,Z+1
 7016 2c0e 9093 0000 		sts (OSTCBHighRdy)+1,r25
 7017 2c12 8093 0000 		sts OSTCBHighRdy,r24
 7018 2c16 8091 0000 		lds r24,OSCtxSwCtr
 7019 2c1a 9091 0000 		lds r25,(OSCtxSwCtr)+1
 7020 2c1e A091 0000 		lds r26,(OSCtxSwCtr)+2
 7021 2c22 B091 0000 		lds r27,(OSCtxSwCtr)+3
 7022 2c26 0196      		adiw r24,1
 7023 2c28 A11D      		adc r26,__zero_reg__
 7024 2c2a B11D      		adc r27,__zero_reg__
 7025 2c2c 8093 0000 		sts OSCtxSwCtr,r24
 7026 2c30 9093 0000 		sts (OSCtxSwCtr)+1,r25
 7027 2c34 A093 0000 		sts (OSCtxSwCtr)+2,r26
 7028 2c38 B093 0000 		sts (OSCtxSwCtr)+3,r27
 7029 2c3c 0E94 0000 		call OSIntCtxSw
 7030 2c40 00C0      		rjmp .L750
 7031               		.size	OSIntExit, .-OSIntExit
 7032               	.global	OSInit
 7033               		.type	OSInit, @function
 7034               	OSInit:
 7035 2c42 6F92      		push r6
 7036 2c44 7F92      		push r7
 7037 2c46 8F92      		push r8
 7038 2c48 9F92      		push r9
 7039 2c4a AF92      		push r10
 7040 2c4c BF92      		push r11
 7041 2c4e CF92      		push r12
 7042 2c50 DF92      		push r13
 7043 2c52 EF92      		push r14
 7044 2c54 FF92      		push r15
 7045 2c56 0F93      		push r16
 7046 2c58 1F93      		push r17
 7047               	/* prologue: function */
 7048               	/* frame size = 0 */
 7049 2c5a 0E94 0000 		call OSInitHookBegin
 7050 2c5e 1092 0000 		sts OSTime,__zero_reg__
 7051 2c62 1092 0000 		sts (OSTime)+1,__zero_reg__
 7052 2c66 1092 0000 		sts (OSTime)+2,__zero_reg__
 7053 2c6a 1092 0000 		sts (OSTime)+3,__zero_reg__
 7054 2c6e 1092 0000 		sts OSIntNesting,__zero_reg__
 7055 2c72 1092 0000 		sts OSLockNesting,__zero_reg__
 7056 2c76 1092 0000 		sts OSTaskCtr,__zero_reg__
 7057 2c7a 1092 0000 		sts OSRunning,__zero_reg__
 7058 2c7e 1092 0000 		sts OSCtxSwCtr,__zero_reg__
 7059 2c82 1092 0000 		sts (OSCtxSwCtr)+1,__zero_reg__
 7060 2c86 1092 0000 		sts (OSCtxSwCtr)+2,__zero_reg__
 7061 2c8a 1092 0000 		sts (OSCtxSwCtr)+3,__zero_reg__
 7062 2c8e 1092 0000 		sts OSIdleCtr,__zero_reg__
 7063 2c92 1092 0000 		sts (OSIdleCtr)+1,__zero_reg__
 7064 2c96 1092 0000 		sts (OSIdleCtr)+2,__zero_reg__
 7065 2c9a 1092 0000 		sts (OSIdleCtr)+3,__zero_reg__
 7066 2c9e 1092 0000 		sts OSIdleCtrRun,__zero_reg__
 7067 2ca2 1092 0000 		sts (OSIdleCtrRun)+1,__zero_reg__
 7068 2ca6 1092 0000 		sts (OSIdleCtrRun)+2,__zero_reg__
GAS LISTING C:\Users\user\AppData\Local\Temp/ccHVvlcI.s 			page 125


 7069 2caa 1092 0000 		sts (OSIdleCtrRun)+3,__zero_reg__
 7070 2cae 1092 0000 		sts OSIdleCtrMax,__zero_reg__
 7071 2cb2 1092 0000 		sts (OSIdleCtrMax)+1,__zero_reg__
 7072 2cb6 1092 0000 		sts (OSIdleCtrMax)+2,__zero_reg__
 7073 2cba 1092 0000 		sts (OSIdleCtrMax)+3,__zero_reg__
 7074 2cbe 1092 0000 		sts OSStatRdy,__zero_reg__
 7075 2cc2 1092 0000 		sts OSRdyGrp,__zero_reg__
 7076 2cc6 1092 0000 		sts OSRdyTbl,__zero_reg__
 7077 2cca 1092 0000 		sts OSRdyTbl+1,__zero_reg__
 7078 2cce 1092 0000 		sts OSPrioCur,__zero_reg__
 7079 2cd2 1092 0000 		sts OSPrioHighRdy,__zero_reg__
 7080 2cd6 1092 0000 		sts (OSTCBHighRdy)+1,__zero_reg__
 7081 2cda 1092 0000 		sts OSTCBHighRdy,__zero_reg__
 7082 2cde 1092 0000 		sts (OSTCBCur)+1,__zero_reg__
 7083 2ce2 1092 0000 		sts OSTCBCur,__zero_reg__
 7084 2ce6 1092 0000 		sts (OSTCBList)+1,__zero_reg__
 7085 2cea 1092 0000 		sts OSTCBList,__zero_reg__
 7086 2cee E0E0      		ldi r30,lo8(OSTCBPrioTbl)
 7087 2cf0 F0E0      		ldi r31,hi8(OSTCBPrioTbl)
 7088               	.L754:
 7089 2cf2 1192      		st Z+,__zero_reg__
 7090 2cf4 1192      		st Z+,__zero_reg__
 7091 2cf6 20E0      		ldi r18,hi8(OSTCBPrioTbl+26)
 7092 2cf8 E030      		cpi r30,lo8(OSTCBPrioTbl+26)
 7093 2cfa F207      		cpc r31,r18
 7094 2cfc 01F4      		brne .L754
 7095 2cfe 80E0      		ldi r24,lo8(OSTCBTbl+34)
 7096 2d00 90E0      		ldi r25,hi8(OSTCBTbl+34)
 7097               	.L755:
 7098 2d02 FC01      		movw r30,r24
 7099 2d04 7497      		sbiw r30,20
 7100 2d06 9183      		std Z+1,r25
 7101 2d08 8083      		st Z,r24
 7102 2d0a 8296      		adiw r24,34
 7103 2d0c E0E0      		ldi r30,hi8(OSTCBTbl+442)
 7104 2d0e 8030      		cpi r24,lo8(OSTCBTbl+442)
 7105 2d10 9E07      		cpc r25,r30
 7106 2d12 01F4      		brne .L755
 7107 2d14 1092 0000 		sts (OSTCBTbl+422)+1,__zero_reg__
 7108 2d18 1092 0000 		sts OSTCBTbl+422,__zero_reg__
 7109 2d1c 80E0      		ldi r24,lo8(OSTCBTbl)
 7110 2d1e 90E0      		ldi r25,hi8(OSTCBTbl)
 7111 2d20 9093 0000 		sts (OSTCBFreeList)+1,r25
 7112 2d24 8093 0000 		sts OSTCBFreeList,r24
 7113 2d28 20E0      		ldi r18,lo8(OSEventTbl)
 7114 2d2a 30E0      		ldi r19,hi8(OSEventTbl)
 7115 2d2c F901      		movw r30,r18
 7116               	.L756:
 7117 2d2e CF01      		movw r24,r30
 7118 2d30 0896      		adiw r24,8
 7119 2d32 1082      		st Z,__zero_reg__
 7120 2d34 9583      		std Z+5,r25
 7121 2d36 8483      		std Z+4,r24
 7122 2d38 FC01      		movw r30,r24
 7123 2d3a 80E0      		ldi r24,hi8(OSEventTbl+56)
 7124 2d3c E030      		cpi r30,lo8(OSEventTbl+56)
 7125 2d3e F807      		cpc r31,r24
GAS LISTING C:\Users\user\AppData\Local\Temp/ccHVvlcI.s 			page 126


 7126 2d40 01F4      		brne .L756
 7127 2d42 1082      		st Z,__zero_reg__
 7128 2d44 1582      		std Z+5,__zero_reg__
 7129 2d46 1482      		std Z+4,__zero_reg__
 7130 2d48 3093 0000 		sts (OSEventFreeList)+1,r19
 7131 2d4c 2093 0000 		sts OSEventFreeList,r18
 7132 2d50 0E94 0000 		call OS_FlagInit
 7133 2d54 0E94 0000 		call OS_MemInit
 7134 2d58 0E94 0000 		call OS_QInit
 7135 2d5c 00D0      		rcall .
 7136 2d5e B3E0      		ldi r27,lo8(3)
 7137 2d60 6B2E      		mov r6,r27
 7138 2d62 712C      		mov r7,__zero_reg__
 7139 2d64 EDB7      		in r30,__SP_L__
 7140 2d66 FEB7      		in r31,__SP_H__
 7141 2d68 7282      		std Z+2,r7
 7142 2d6a 6182      		std Z+1,r6
 7143 2d6c 80E0      		ldi r24,lo8(gs(OS_TaskIdle))
 7144 2d6e 90E0      		ldi r25,hi8(gs(OS_TaskIdle))
 7145 2d70 60E0      		ldi r22,lo8(0)
 7146 2d72 70E0      		ldi r23,hi8(0)
 7147 2d74 40E0      		ldi r20,lo8(OSTaskIdleStk+127)
 7148 2d76 50E0      		ldi r21,hi8(OSTaskIdleStk+127)
 7149 2d78 2CE0      		ldi r18,lo8(12)
 7150 2d7a 0FEF      		ldi r16,lo8(-1)
 7151 2d7c 1FEF      		ldi r17,hi8(-1)
 7152 2d7e A0E0      		ldi r26,lo8(OSTaskIdleStk)
 7153 2d80 EA2E      		mov r14,r26
 7154 2d82 A0E0      		ldi r26,hi8(OSTaskIdleStk)
 7155 2d84 FA2E      		mov r15,r26
 7156 2d86 F0E8      		ldi r31,lo8(128)
 7157 2d88 AF2E      		mov r10,r31
 7158 2d8a B12C      		mov r11,__zero_reg__
 7159 2d8c C12C      		mov r12,__zero_reg__
 7160 2d8e D12C      		mov r13,__zero_reg__
 7161 2d90 8824      		clr r8
 7162 2d92 9924      		clr r9
 7163 2d94 0E94 0000 		call OSTaskCreateExt
 7164 2d98 EDB7      		in r30,__SP_L__
 7165 2d9a FEB7      		in r31,__SP_H__
 7166 2d9c 7282      		std Z+2,r7
 7167 2d9e 6182      		std Z+1,r6
 7168 2da0 80E0      		ldi r24,lo8(gs(OS_TaskStat))
 7169 2da2 90E0      		ldi r25,hi8(gs(OS_TaskStat))
 7170 2da4 60E0      		ldi r22,lo8(0)
 7171 2da6 70E0      		ldi r23,hi8(0)
 7172 2da8 40E0      		ldi r20,lo8(OSTaskStatStk+127)
 7173 2daa 50E0      		ldi r21,hi8(OSTaskStatStk+127)
 7174 2dac 2BE0      		ldi r18,lo8(11)
 7175 2dae 0EEF      		ldi r16,lo8(-2)
 7176 2db0 1FEF      		ldi r17,hi8(-2)
 7177 2db2 E0E0      		ldi r30,lo8(OSTaskStatStk)
 7178 2db4 EE2E      		mov r14,r30
 7179 2db6 E0E0      		ldi r30,hi8(OSTaskStatStk)
 7180 2db8 FE2E      		mov r15,r30
 7181 2dba 0E94 0000 		call OSTaskCreateExt
 7182 2dbe 0F90      		pop __tmp_reg__
GAS LISTING C:\Users\user\AppData\Local\Temp/ccHVvlcI.s 			page 127


 7183 2dc0 0F90      		pop __tmp_reg__
 7184 2dc2 0E94 0000 		call OSInitHookEnd
 7185               	/* epilogue start */
 7186 2dc6 1F91      		pop r17
 7187 2dc8 0F91      		pop r16
 7188 2dca FF90      		pop r15
 7189 2dcc EF90      		pop r14
 7190 2dce DF90      		pop r13
 7191 2dd0 CF90      		pop r12
 7192 2dd2 BF90      		pop r11
 7193 2dd4 AF90      		pop r10
 7194 2dd6 9F90      		pop r9
 7195 2dd8 8F90      		pop r8
 7196 2dda 7F90      		pop r7
 7197 2ddc 6F90      		pop r6
 7198 2dde 0895      		ret
 7199               		.size	OSInit, .-OSInit
 7200               	.global	OSMapTbl
 7201               		.data
 7202               		.type	OSMapTbl, @object
 7203               		.size	OSMapTbl, 8
 7204               	OSMapTbl:
 7205 0000 01        		.byte	1
 7206 0001 02        		.byte	2
 7207 0002 04        		.byte	4
 7208 0003 08        		.byte	8
 7209 0004 10        		.byte	16
 7210 0005 20        		.byte	32
 7211 0006 40        		.byte	64
 7212 0007 80        		.byte	-128
 7213               	.global	OSUnMapTbl
 7214               		.type	OSUnMapTbl, @object
 7215               		.size	OSUnMapTbl, 256
 7216               	OSUnMapTbl:
 7217 0008 00        		.byte	0
 7218 0009 00        		.byte	0
 7219 000a 01        		.byte	1
 7220 000b 00        		.byte	0
 7221 000c 02        		.byte	2
 7222 000d 00        		.byte	0
 7223 000e 01        		.byte	1
 7224 000f 00        		.byte	0
 7225 0010 03        		.byte	3
 7226 0011 00        		.byte	0
 7227 0012 01        		.byte	1
 7228 0013 00        		.byte	0
 7229 0014 02        		.byte	2
 7230 0015 00        		.byte	0
 7231 0016 01        		.byte	1
 7232 0017 00        		.byte	0
 7233 0018 04        		.byte	4
 7234 0019 00        		.byte	0
 7235 001a 01        		.byte	1
 7236 001b 00        		.byte	0
 7237 001c 02        		.byte	2
 7238 001d 00        		.byte	0
 7239 001e 01        		.byte	1
GAS LISTING C:\Users\user\AppData\Local\Temp/ccHVvlcI.s 			page 128


 7240 001f 00        		.byte	0
 7241 0020 03        		.byte	3
 7242 0021 00        		.byte	0
 7243 0022 01        		.byte	1
 7244 0023 00        		.byte	0
 7245 0024 02        		.byte	2
 7246 0025 00        		.byte	0
 7247 0026 01        		.byte	1
 7248 0027 00        		.byte	0
 7249 0028 05        		.byte	5
 7250 0029 00        		.byte	0
 7251 002a 01        		.byte	1
 7252 002b 00        		.byte	0
 7253 002c 02        		.byte	2
 7254 002d 00        		.byte	0
 7255 002e 01        		.byte	1
 7256 002f 00        		.byte	0
 7257 0030 03        		.byte	3
 7258 0031 00        		.byte	0
 7259 0032 01        		.byte	1
 7260 0033 00        		.byte	0
 7261 0034 02        		.byte	2
 7262 0035 00        		.byte	0
 7263 0036 01        		.byte	1
 7264 0037 00        		.byte	0
 7265 0038 04        		.byte	4
 7266 0039 00        		.byte	0
 7267 003a 01        		.byte	1
 7268 003b 00        		.byte	0
 7269 003c 02        		.byte	2
 7270 003d 00        		.byte	0
 7271 003e 01        		.byte	1
 7272 003f 00        		.byte	0
 7273 0040 03        		.byte	3
 7274 0041 00        		.byte	0
 7275 0042 01        		.byte	1
 7276 0043 00        		.byte	0
 7277 0044 02        		.byte	2
 7278 0045 00        		.byte	0
 7279 0046 01        		.byte	1
 7280 0047 00        		.byte	0
 7281 0048 06        		.byte	6
 7282 0049 00        		.byte	0
 7283 004a 01        		.byte	1
 7284 004b 00        		.byte	0
 7285 004c 02        		.byte	2
 7286 004d 00        		.byte	0
 7287 004e 01        		.byte	1
 7288 004f 00        		.byte	0
 7289 0050 03        		.byte	3
 7290 0051 00        		.byte	0
 7291 0052 01        		.byte	1
 7292 0053 00        		.byte	0
 7293 0054 02        		.byte	2
 7294 0055 00        		.byte	0
 7295 0056 01        		.byte	1
 7296 0057 00        		.byte	0
GAS LISTING C:\Users\user\AppData\Local\Temp/ccHVvlcI.s 			page 129


 7297 0058 04        		.byte	4
 7298 0059 00        		.byte	0
 7299 005a 01        		.byte	1
 7300 005b 00        		.byte	0
 7301 005c 02        		.byte	2
 7302 005d 00        		.byte	0
 7303 005e 01        		.byte	1
 7304 005f 00        		.byte	0
 7305 0060 03        		.byte	3
 7306 0061 00        		.byte	0
 7307 0062 01        		.byte	1
 7308 0063 00        		.byte	0
 7309 0064 02        		.byte	2
 7310 0065 00        		.byte	0
 7311 0066 01        		.byte	1
 7312 0067 00        		.byte	0
 7313 0068 05        		.byte	5
 7314 0069 00        		.byte	0
 7315 006a 01        		.byte	1
 7316 006b 00        		.byte	0
 7317 006c 02        		.byte	2
 7318 006d 00        		.byte	0
 7319 006e 01        		.byte	1
 7320 006f 00        		.byte	0
 7321 0070 03        		.byte	3
 7322 0071 00        		.byte	0
 7323 0072 01        		.byte	1
 7324 0073 00        		.byte	0
 7325 0074 02        		.byte	2
 7326 0075 00        		.byte	0
 7327 0076 01        		.byte	1
 7328 0077 00        		.byte	0
 7329 0078 04        		.byte	4
 7330 0079 00        		.byte	0
 7331 007a 01        		.byte	1
 7332 007b 00        		.byte	0
 7333 007c 02        		.byte	2
 7334 007d 00        		.byte	0
 7335 007e 01        		.byte	1
 7336 007f 00        		.byte	0
 7337 0080 03        		.byte	3
 7338 0081 00        		.byte	0
 7339 0082 01        		.byte	1
 7340 0083 00        		.byte	0
 7341 0084 02        		.byte	2
 7342 0085 00        		.byte	0
 7343 0086 01        		.byte	1
 7344 0087 00        		.byte	0
 7345 0088 07        		.byte	7
 7346 0089 00        		.byte	0
 7347 008a 01        		.byte	1
 7348 008b 00        		.byte	0
 7349 008c 02        		.byte	2
 7350 008d 00        		.byte	0
 7351 008e 01        		.byte	1
 7352 008f 00        		.byte	0
 7353 0090 03        		.byte	3
GAS LISTING C:\Users\user\AppData\Local\Temp/ccHVvlcI.s 			page 130


 7354 0091 00        		.byte	0
 7355 0092 01        		.byte	1
 7356 0093 00        		.byte	0
 7357 0094 02        		.byte	2
 7358 0095 00        		.byte	0
 7359 0096 01        		.byte	1
 7360 0097 00        		.byte	0
 7361 0098 04        		.byte	4
 7362 0099 00        		.byte	0
 7363 009a 01        		.byte	1
 7364 009b 00        		.byte	0
 7365 009c 02        		.byte	2
 7366 009d 00        		.byte	0
 7367 009e 01        		.byte	1
 7368 009f 00        		.byte	0
 7369 00a0 03        		.byte	3
 7370 00a1 00        		.byte	0
 7371 00a2 01        		.byte	1
 7372 00a3 00        		.byte	0
 7373 00a4 02        		.byte	2
 7374 00a5 00        		.byte	0
 7375 00a6 01        		.byte	1
 7376 00a7 00        		.byte	0
 7377 00a8 05        		.byte	5
 7378 00a9 00        		.byte	0
 7379 00aa 01        		.byte	1
 7380 00ab 00        		.byte	0
 7381 00ac 02        		.byte	2
 7382 00ad 00        		.byte	0
 7383 00ae 01        		.byte	1
 7384 00af 00        		.byte	0
 7385 00b0 03        		.byte	3
 7386 00b1 00        		.byte	0
 7387 00b2 01        		.byte	1
 7388 00b3 00        		.byte	0
 7389 00b4 02        		.byte	2
 7390 00b5 00        		.byte	0
 7391 00b6 01        		.byte	1
 7392 00b7 00        		.byte	0
 7393 00b8 04        		.byte	4
 7394 00b9 00        		.byte	0
 7395 00ba 01        		.byte	1
 7396 00bb 00        		.byte	0
 7397 00bc 02        		.byte	2
 7398 00bd 00        		.byte	0
 7399 00be 01        		.byte	1
 7400 00bf 00        		.byte	0
 7401 00c0 03        		.byte	3
 7402 00c1 00        		.byte	0
 7403 00c2 01        		.byte	1
 7404 00c3 00        		.byte	0
 7405 00c4 02        		.byte	2
 7406 00c5 00        		.byte	0
 7407 00c6 01        		.byte	1
 7408 00c7 00        		.byte	0
 7409 00c8 06        		.byte	6
 7410 00c9 00        		.byte	0
GAS LISTING C:\Users\user\AppData\Local\Temp/ccHVvlcI.s 			page 131


 7411 00ca 01        		.byte	1
 7412 00cb 00        		.byte	0
 7413 00cc 02        		.byte	2
 7414 00cd 00        		.byte	0
 7415 00ce 01        		.byte	1
 7416 00cf 00        		.byte	0
 7417 00d0 03        		.byte	3
 7418 00d1 00        		.byte	0
 7419 00d2 01        		.byte	1
 7420 00d3 00        		.byte	0
 7421 00d4 02        		.byte	2
 7422 00d5 00        		.byte	0
 7423 00d6 01        		.byte	1
 7424 00d7 00        		.byte	0
 7425 00d8 04        		.byte	4
 7426 00d9 00        		.byte	0
 7427 00da 01        		.byte	1
 7428 00db 00        		.byte	0
 7429 00dc 02        		.byte	2
 7430 00dd 00        		.byte	0
 7431 00de 01        		.byte	1
 7432 00df 00        		.byte	0
 7433 00e0 03        		.byte	3
 7434 00e1 00        		.byte	0
 7435 00e2 01        		.byte	1
 7436 00e3 00        		.byte	0
 7437 00e4 02        		.byte	2
 7438 00e5 00        		.byte	0
 7439 00e6 01        		.byte	1
 7440 00e7 00        		.byte	0
 7441 00e8 05        		.byte	5
 7442 00e9 00        		.byte	0
 7443 00ea 01        		.byte	1
 7444 00eb 00        		.byte	0
 7445 00ec 02        		.byte	2
 7446 00ed 00        		.byte	0
 7447 00ee 01        		.byte	1
 7448 00ef 00        		.byte	0
 7449 00f0 03        		.byte	3
 7450 00f1 00        		.byte	0
 7451 00f2 01        		.byte	1
 7452 00f3 00        		.byte	0
 7453 00f4 02        		.byte	2
 7454 00f5 00        		.byte	0
 7455 00f6 01        		.byte	1
 7456 00f7 00        		.byte	0
 7457 00f8 04        		.byte	4
 7458 00f9 00        		.byte	0
 7459 00fa 01        		.byte	1
 7460 00fb 00        		.byte	0
 7461 00fc 02        		.byte	2
 7462 00fd 00        		.byte	0
 7463 00fe 01        		.byte	1
 7464 00ff 00        		.byte	0
 7465 0100 03        		.byte	3
 7466 0101 00        		.byte	0
 7467 0102 01        		.byte	1
GAS LISTING C:\Users\user\AppData\Local\Temp/ccHVvlcI.s 			page 132


 7468 0103 00        		.byte	0
 7469 0104 02        		.byte	2
 7470 0105 00        		.byte	0
 7471 0106 01        		.byte	1
 7472 0107 00        		.byte	0
 7473               		.comm OSCtxSwCtr,4,1
 7474               		.comm OSEventFreeList,2,1
 7475               		.comm OSEventTbl,64,1
 7476               		.comm OSFlagTbl,16,1
 7477               		.comm OSFlagFreeList,2,1
 7478               		.comm OSCPUUsage,1,1
 7479               		.comm OSIdleCtrMax,4,1
 7480               		.comm OSIdleCtrRun,4,1
 7481               		.comm OSStatRdy,1,1
 7482               		.comm OSTaskStatStk,128,1
 7483               		.comm OSIntNesting,1,1
 7484               		.comm OSIntExitY,1,1
 7485               		.comm OSLockNesting,1,1
 7486               		.comm OSPrioCur,1,1
 7487               		.comm OSPrioHighRdy,1,1
 7488               		.comm OSRdyGrp,1,1
 7489               		.comm OSRdyTbl,2,1
 7490               		.comm OSRunning,1,1
 7491               		.comm OSTaskCtr,1,1
 7492               		.comm OSIdleCtr,4,1
 7493               		.comm OSTaskIdleStk,128,1
 7494               		.comm OSTCBCur,2,1
 7495               		.comm OSTCBFreeList,2,1
 7496               		.comm OSTCBHighRdy,2,1
 7497               		.comm OSTCBList,2,1
 7498               		.comm OSTCBPrioTbl,26,1
 7499               		.comm OSTCBTbl,442,1
 7500               		.comm OSMemFreeList,2,1
 7501               		.comm OSMemTbl,16,1
 7502               		.comm OSQFreeList,2,1
 7503               		.comm OSQTbl,28,1
 7504               		.comm OSTime,4,1
 7505               	.global __do_copy_data
 7506               	.global __do_clear_bss
GAS LISTING C:\Users\user\AppData\Local\Temp/ccHVvlcI.s 			page 133


DEFINED SYMBOLS
                            *ABS*:00000000 ucos_ii.c
C:\Users\user\AppData\Local\Temp/ccHVvlcI.s:2      *ABS*:0000003f __SREG__
C:\Users\user\AppData\Local\Temp/ccHVvlcI.s:3      *ABS*:0000003e __SP_H__
C:\Users\user\AppData\Local\Temp/ccHVvlcI.s:4      *ABS*:0000003d __SP_L__
C:\Users\user\AppData\Local\Temp/ccHVvlcI.s:5      *ABS*:00000034 __CCP__
C:\Users\user\AppData\Local\Temp/ccHVvlcI.s:6      *ABS*:00000000 __tmp_reg__
C:\Users\user\AppData\Local\Temp/ccHVvlcI.s:7      *ABS*:00000001 __zero_reg__
C:\Users\user\AppData\Local\Temp/ccHVvlcI.s:11     .text:00000000 OSIntEnter
                            *COM*:00000001 OSRunning
                            *COM*:00000001 OSIntNesting
C:\Users\user\AppData\Local\Temp/ccHVvlcI.s:29     .text:0000001a OSSchedLock
                            *COM*:00000001 OSLockNesting
C:\Users\user\AppData\Local\Temp/ccHVvlcI.s:57     .text:00000038 OSVersion
C:\Users\user\AppData\Local\Temp/ccHVvlcI.s:67     .text:0000003e OS_Dummy
C:\Users\user\AppData\Local\Temp/ccHVvlcI.s:75     .text:00000040 OS_EventTaskRdy
C:\Users\user\AppData\Local\Temp/ccHVvlcI.s:7216   .data:00000008 OSUnMapTbl
C:\Users\user\AppData\Local\Temp/ccHVvlcI.s:7204   .data:00000000 OSMapTbl
                            *COM*:0000001a OSTCBPrioTbl
                            *COM*:00000001 OSRdyGrp
                            *COM*:00000002 OSRdyTbl
C:\Users\user\AppData\Local\Temp/ccHVvlcI.s:173    .text:000000f6 OS_EventTaskWait
                            *COM*:00000002 OSTCBCur
C:\Users\user\AppData\Local\Temp/ccHVvlcI.s:231    .text:00000160 OS_EventTO
C:\Users\user\AppData\Local\Temp/ccHVvlcI.s:276    .text:000001ae OS_EventWaitListInit
C:\Users\user\AppData\Local\Temp/ccHVvlcI.s:288    .text:000001b8 OSFlagAccept
C:\Users\user\AppData\Local\Temp/ccHVvlcI.s:444    .text:00000294 OSFlagCreate
                            *COM*:00000002 OSFlagFreeList
C:\Users\user\AppData\Local\Temp/ccHVvlcI.s:499    .text:000002e0 OSFlagQuery
C:\Users\user\AppData\Local\Temp/ccHVvlcI.s:534    .text:00000308 OS_FlagBlock
C:\Users\user\AppData\Local\Temp/ccHVvlcI.s:619    .text:000003a8 OS_FlagInit
                            *COM*:00000010 OSFlagTbl
C:\Users\user\AppData\Local\Temp/ccHVvlcI.s:645    .text:000003e8 OS_FlagUnlink
C:\Users\user\AppData\Local\Temp/ccHVvlcI.s:694    .text:0000043a OS_FlagTaskRdy
C:\Users\user\AppData\Local\Temp/ccHVvlcI.s:757    .text:000004b0 OSMboxAccept
C:\Users\user\AppData\Local\Temp/ccHVvlcI.s:792    .text:000004d2 OSMboxCreate
                            *COM*:00000002 OSEventFreeList
C:\Users\user\AppData\Local\Temp/ccHVvlcI.s:841    .text:0000051a OSMboxQuery
C:\Users\user\AppData\Local\Temp/ccHVvlcI.s:888    .text:00000558 OSMemCreate
                            *COM*:00000002 OSMemFreeList
C:\Users\user\AppData\Local\Temp/ccHVvlcI.s:1090   .text:000006c6 OSMemGet
C:\Users\user\AppData\Local\Temp/ccHVvlcI.s:1160   .text:00000726 OSMemPut
C:\Users\user\AppData\Local\Temp/ccHVvlcI.s:1236   .text:00000790 OSMemQuery
C:\Users\user\AppData\Local\Temp/ccHVvlcI.s:1315   .text:0000080a OS_MemInit
                            *COM*:00000010 OSMemTbl
C:\Users\user\AppData\Local\Temp/ccHVvlcI.s:1343   .text:00000858 OSMutexAccept
C:\Users\user\AppData\Local\Temp/ccHVvlcI.s:1427   .text:000008d6 OSMutexCreate
C:\Users\user\AppData\Local\Temp/ccHVvlcI.s:1535   .text:00000980 OSMutexQuery
C:\Users\user\AppData\Local\Temp/ccHVvlcI.s:1601   .text:000009e0 OSQAccept
C:\Users\user\AppData\Local\Temp/ccHVvlcI.s:1675   .text:00000a4c OSQCreate
                            *COM*:00000002 OSQFreeList
C:\Users\user\AppData\Local\Temp/ccHVvlcI.s:1785   .text:00000b04 OSQFlush
C:\Users\user\AppData\Local\Temp/ccHVvlcI.s:1826   .text:00000b36 OSQQuery
C:\Users\user\AppData\Local\Temp/ccHVvlcI.s:1908   .text:00000bb4 OS_QInit
                            *COM*:0000001c OSQTbl
C:\Users\user\AppData\Local\Temp/ccHVvlcI.s:1925   .text:00000bd4 OSSemAccept
C:\Users\user\AppData\Local\Temp/ccHVvlcI.s:1968   .text:00000c06 OSSemCreate
GAS LISTING C:\Users\user\AppData\Local\Temp/ccHVvlcI.s 			page 134


C:\Users\user\AppData\Local\Temp/ccHVvlcI.s:2017   .text:00000c4e OSSemQuery
C:\Users\user\AppData\Local\Temp/ccHVvlcI.s:2064   .text:00000c8c OSTaskDelReq
C:\Users\user\AppData\Local\Temp/ccHVvlcI.s:2127   .text:00000cd8 OSTaskStkChk
C:\Users\user\AppData\Local\Temp/ccHVvlcI.s:2272   .text:00000dc0 OSTimeGet
                            *COM*:00000004 OSTime
C:\Users\user\AppData\Local\Temp/ccHVvlcI.s:2296   .text:00000dda OSTimeSet
C:\Users\user\AppData\Local\Temp/ccHVvlcI.s:2318   .text:00000df0 OSTaskQuery
C:\Users\user\AppData\Local\Temp/ccHVvlcI.s:2375   .text:00000e38 OS_TCBInit
                            *COM*:00000002 OSTCBFreeList
                            *COM*:00000002 OSTCBList
C:\Users\user\AppData\Local\Temp/ccHVvlcI.s:2525   .text:00000f40 OS_TaskIdle
                            *COM*:00000004 OSIdleCtr
C:\Users\user\AppData\Local\Temp/ccHVvlcI.s:2555   .text:00000f70 OS_Sched
                            *COM*:00000001 OSPrioHighRdy
                            *COM*:00000001 OSPrioCur
                            *COM*:00000002 OSTCBHighRdy
                            *COM*:00000004 OSCtxSwCtr
C:\Users\user\AppData\Local\Temp/ccHVvlcI.s:2626   .text:00000ffe OSTimeDlyResume
C:\Users\user\AppData\Local\Temp/ccHVvlcI.s:2716   .text:0000107c OSTimeDly
C:\Users\user\AppData\Local\Temp/ccHVvlcI.s:2767   .text:000010cc OSTimeDlyHMSM
C:\Users\user\AppData\Local\Temp/ccHVvlcI.s:2921   .text:000011ee OS_TaskStat
                            *COM*:00000001 OSStatRdy
                            *COM*:00000004 OSIdleCtrMax
                            *COM*:00000001 OSCPUUsage
                            *COM*:00000004 OSIdleCtrRun
C:\Users\user\AppData\Local\Temp/ccHVvlcI.s:3023   .text:000012d8 OSStatInit
C:\Users\user\AppData\Local\Temp/ccHVvlcI.s:3071   .text:00001328 OSTaskSuspend
C:\Users\user\AppData\Local\Temp/ccHVvlcI.s:3176   .text:000013d2 OSTaskResume
C:\Users\user\AppData\Local\Temp/ccHVvlcI.s:3269   .text:00001454 OSTaskDel
                            *COM*:00000001 OSTaskCtr
C:\Users\user\AppData\Local\Temp/ccHVvlcI.s:3468   .text:000015ba OSTaskCreateExt
C:\Users\user\AppData\Local\Temp/ccHVvlcI.s:3642   .text:000016d2 OSTaskCreate
C:\Users\user\AppData\Local\Temp/ccHVvlcI.s:3763   .text:00001782 OSTaskChangePrio
C:\Users\user\AppData\Local\Temp/ccHVvlcI.s:3979   .text:000018e8 OSSemPost
C:\Users\user\AppData\Local\Temp/ccHVvlcI.s:4043   .text:00001938 OSSemPend
C:\Users\user\AppData\Local\Temp/ccHVvlcI.s:4160   .text:000019e8 OSSemDel
C:\Users\user\AppData\Local\Temp/ccHVvlcI.s:4301   .text:00001aca OSQPostOpt
C:\Users\user\AppData\Local\Temp/ccHVvlcI.s:4470   .text:00001bda OSQPostFront
C:\Users\user\AppData\Local\Temp/ccHVvlcI.s:4577   .text:00001c7a OSQPost
C:\Users\user\AppData\Local\Temp/ccHVvlcI.s:4683   .text:00001d18 OSQPend
C:\Users\user\AppData\Local\Temp/ccHVvlcI.s:4854   .text:00001e30 OSQDel
C:\Users\user\AppData\Local\Temp/ccHVvlcI.s:5019   .text:00001f50 OSMutexPost
C:\Users\user\AppData\Local\Temp/ccHVvlcI.s:5209   .text:000020a0 OSMutexPend
C:\Users\user\AppData\Local\Temp/ccHVvlcI.s:5458   .text:0000225e OSMutexDel
C:\Users\user\AppData\Local\Temp/ccHVvlcI.s:5616   .text:00002362 OSMboxPostOpt
C:\Users\user\AppData\Local\Temp/ccHVvlcI.s:5717   .text:000023f2 OSMboxPost
C:\Users\user\AppData\Local\Temp/ccHVvlcI.s:5782   .text:00002442 OSMboxPend
C:\Users\user\AppData\Local\Temp/ccHVvlcI.s:5910   .text:00002508 OSMboxDel
C:\Users\user\AppData\Local\Temp/ccHVvlcI.s:6051   .text:000025ea OSFlagPost
C:\Users\user\AppData\Local\Temp/ccHVvlcI.s:6243   .text:00002718 OSFlagPend
C:\Users\user\AppData\Local\Temp/ccHVvlcI.s:6607   .text:00002960 OSFlagDel
C:\Users\user\AppData\Local\Temp/ccHVvlcI.s:6753   .text:00002a4e OSSchedUnlock
C:\Users\user\AppData\Local\Temp/ccHVvlcI.s:6801   .text:00002a84 OSTimeTick
C:\Users\user\AppData\Local\Temp/ccHVvlcI.s:6910   .text:00002b42 OSStart
C:\Users\user\AppData\Local\Temp/ccHVvlcI.s:6953   .text:00002b9c OSIntExit
                            *COM*:00000001 OSIntExitY
C:\Users\user\AppData\Local\Temp/ccHVvlcI.s:7034   .text:00002c42 OSInit
GAS LISTING C:\Users\user\AppData\Local\Temp/ccHVvlcI.s 			page 135


                            *COM*:000001ba OSTCBTbl
                            *COM*:00000040 OSEventTbl
                            *COM*:00000080 OSTaskIdleStk
                            *COM*:00000080 OSTaskStatStk

UNDEFINED SYMBOLS
OSTCBInitHook
OSTaskCreateHook
OSTaskIdleHook
OSCtxSw
__mulsi3
__udivmodsi4
OSTaskStatHook
OSTaskDelHook
memset
OSTaskStkInit
OSTimeTickHook
OSStartHighRdy
OSIntCtxSw
OSInitHookBegin
OSInitHookEnd
__do_copy_data
__do_clear_bss
